
========================================================================

** ELF Header Information

    File Name: __image.axf

    Machine class: ELFCLASS32 (32-bit)
    Data encoding: ELFDATA2LSB (Little endian)
    Header version: EV_CURRENT (Current version)
    Operating System ABI: none
    ABI Version: 0
    File Type: ET_EXEC (Executable) (2)
    Machine: EM_ARM (ARM)

    Image Entry point: 0x00000000
    Flags: EF_ARM_HASENTRY + EF_ARM_SYMSARESORTED + EF_ARM_MAPSYMSFIRST (0x04000016)

    ARM ELF revision: 4 (ABI version 1)

    Built with
    ARM/Thumb C/C++ Compiler, RVCT2.2 [Build 349]
    ARM/Thumb Macro Assembler, RVCT2.2 [Build 349]
    ARM Linker, RVCT2.2 [Build 349] 

    Header size: 52 bytes (0x34)
    Program header entry size: 32 bytes (0x20)
    Section header entry size: 40 bytes (0x28)

    Program header entries: 1
    Section header entries: 17

    Program header offset: 772224 (0x000bc880)
    Section header offset: 772256 (0x000bc8a0)

    Section header string table index: 16

========================================================================

** Program header #0 (PT_LOAD) [PF_X + PF_W + PF_R + PF_ARM_ENTRY]
    Size : 13900 bytes (12876 bytes in file)
    Virtual address: 0x00000000 (Alignment 8)


========================================================================

** Section #1 'EXEC_APP' (SHT_PROGBITS) [SHF_ALLOC + SHF_EXECINSTR]
    Size   : 12716 bytes (alignment 4)
    Address: 0x00000000

    $a
    .text
    jpeg_enc_test
        0x00000000:    e92d4ff0    .O-.    PUSH     {r4-r11,lr}
        0x00000004:    e24dd0cc    ..M.    SUB      sp,sp,#0xcc
        0x00000008:    e28d0008    ....    ADD      r0,sp,#8
        0x0000000c:    e3a01000    ....    MOV      r1,#0
        0x00000010:    e3a02000    . ..    MOV      r2,#0
        0x00000014:    e8a00006    ....    STM      r0!,{r1,r2}
        0x00000018:    e8800006    ....    STM      r0,{r1,r2}
        0x0000001c:    e3a04d0a    .M..    MOV      r4,#0x280
        0x00000020:    e3a05e1e    .^..    MOV      r5,#0x1e0
        0x00000024:    e28f0fe7    ....    ADR      r0,{pc}+0x3a4 ; 0x3c8
        0x00000028:    e5900000    ....    LDR      r0,[r0,#0]
        0x0000002c:    e58d0004    ....    STR      r0,[sp,#4]
        0x00000030:    e1610584    ..a.    SMULBB   r1,r4,r5
        0x00000034:    e2811c03    ....    ADD      r1,r1,#0x300
        0x00000038:    e28110ff    ....    ADD      r1,r1,#0xff
        0x0000003c:    e1a00521    !...    LSR      r0,r1,#10
        0x00000040:    e3a01000    ....    MOV      r1,#0
        0x00000044:    ef000200    ....    SVC      #0x200 ; formerly SWI
        0x00000048:    e1a0a000    ....    MOV      r10,r0
        0x0000004c:    e1610584    ..a.    SMULBB   r1,r4,r5
        0x00000050:    e2811c03    ....    ADD      r1,r1,#0x300
        0x00000054:    e28110ff    ....    ADD      r1,r1,#0xff
        0x00000058:    e1a00521    !...    LSR      r0,r1,#10
        0x0000005c:    e3a01000    ....    MOV      r1,#0
        0x00000060:    ef000200    ....    SVC      #0x200 ; formerly SWI
        0x00000064:    e1a0b000    ....    MOV      r11,r0
        0x00000068:    e28f1fd7    ....    ADR      r1,{pc}+0x364 ; 0x3cc
        0x0000006c:    e28f0fd7    ....    ADR      r0,{pc}+0x364 ; 0x3d0
        0x00000070:    eb000727    '...    BL       eLIBs_fopen ; 0x1d14
        0x00000074:    e1a07000    .p..    MOV      r7,r0
        0x00000078:    e28f1fd3    ....    ADR      r1,{pc}+0x354 ; 0x3cc
        0x0000007c:    e28f0fda    ....    ADR      r0,{pc}+0x370 ; 0x3ec
        0x00000080:    eb000723    #...    BL       eLIBs_fopen ; 0x1d14
        0x00000084:    e1a08000    ....    MOV      r8,r0
        0x00000088:    e28f1fde    ....    ADR      r1,{pc}+0x380 ; 0x408
        0x0000008c:    e28f0fde    ....    ADR      r0,{pc}+0x380 ; 0x40c
        0x00000090:    eb00071f    ....    BL       eLIBs_fopen ; 0x1d14
        0x00000094:    e1a09000    ....    MOV      r9,r0
        0x00000098:    e3a01030    0...    MOV      r1,#0x30
        0x0000009c:    e28d0058    X...    ADD      r0,sp,#0x58
        0x000000a0:    eb000ad1    ....    BL       __aeabi_memclr4 ; 0x2bec
        0x000000a4:    e3a01038    8...    MOV      r1,#0x38
        0x000000a8:    e28d0088    ....    ADD      r0,sp,#0x88
        0x000000ac:    eb000ace    ....    BL       __aeabi_memclr4 ; 0x2bec
        0x000000b0:    e3a01040    @...    MOV      r1,#0x40
        0x000000b4:    e28d0018    ....    ADD      r0,sp,#0x18
        0x000000b8:    eb000acb    ....    BL       __aeabi_memclr4 ; 0x2bec
        0x000000bc:    e3570000    ..W.    CMP      r7,#0
        0x000000c0:    0a000007    ....    BEQ      0xe4 ; jpeg_enc_test + 228
        0x000000c4:    e0020495    ....    MUL      r2,r5,r4
        0x000000c8:    e1a03007    .0..    MOV      r3,r7
        0x000000cc:    e3a01001    ....    MOV      r1,#1
        0x000000d0:    e1a0000a    ....    MOV      r0,r10
        0x000000d4:    eb000717    ....    BL       eLIBs_fread ; 0x1d38
        0x000000d8:    e1a00007    ....    MOV      r0,r7
        0x000000dc:    eb00070f    ....    BL       eLIBs_fclose ; 0x1d20
        0x000000e0:    e3a07000    .p..    MOV      r7,#0
        0x000000e4:    e3580000    ..X.    CMP      r8,#0
        0x000000e8:    0a000007    ....    BEQ      0x10c ; jpeg_enc_test + 268
        0x000000ec:    e0020495    ....    MUL      r2,r5,r4
        0x000000f0:    e1a03008    .0..    MOV      r3,r8
        0x000000f4:    e3a01001    ....    MOV      r1,#1
        0x000000f8:    e1a0000b    ....    MOV      r0,r11
        0x000000fc:    eb00070d    ....    BL       eLIBs_fread ; 0x1d38
        0x00000100:    e1a00008    ....    MOV      r0,r8
        0x00000104:    eb000705    ....    BL       eLIBs_fclose ; 0x1d20
        0x00000108:    e3a08000    ....    MOV      r8,#0
        0x0000010c:    e3a00001    ....    MOV      r0,#1
        0x00000110:    e58d0088    ....    STR      r0,[sp,#0x88]
        0x00000114:    e58d408c    .@..    STR      r4,[sp,#0x8c]
        0x00000118:    e58d508c    .P..    STR      r5,[sp,#0x8c]
        0x0000011c:    e58da094    ....    STR      r10,[sp,#0x94]
        0x00000120:    e58db098    ....    STR      r11,[sp,#0x98]
        0x00000124:    e3a00012    ....    MOV      r0,#0x12
        0x00000128:    e5cd00a0    ....    STRB     r0,[sp,#0xa0]
        0x0000012c:    e3a00003    ....    MOV      r0,#3
        0x00000130:    e5cd00a1    ....    STRB     r0,[sp,#0xa1]
        0x00000134:    e3a00020     ...    MOV      r0,#0x20
        0x00000138:    e5cd00a2    ....    STRB     r0,[sp,#0xa2]
        0x0000013c:    e3a00000    ....    MOV      r0,#0
        0x00000140:    e5cd00a3    ....    STRB     r0,[sp,#0xa3]
        0x00000144:    e58d00b0    ....    STR      r0,[sp,#0xb0]
        0x00000148:    e5cd00b8    ....    STRB     r0,[sp,#0xb8]
        0x0000014c:    e58d405c    \@..    STR      r4,[sp,#0x5c]
        0x00000150:    e58d5060    `P..    STR      r5,[sp,#0x60]
        0x00000154:    e58d4064    d@..    STR      r4,[sp,#0x64]
        0x00000158:    e58d5068    hP..    STR      r5,[sp,#0x68]
        0x0000015c:    e59f02bc    ....    LDR      r0,[pc,#700] ; [0x420] = 0x7530
        0x00000160:    e58d006c    l...    STR      r0,[sp,#0x6c]
        0x00000164:    e3a00000    ....    MOV      r0,#0
        0x00000168:    e58d0070    p...    STR      r0,[sp,#0x70]
        0x0000016c:    e58d0074    t...    STR      r0,[sp,#0x74]
        0x00000170:    e3a00028    (...    MOV      r0,#0x28
        0x00000174:    e1cd07b8    ....    STRH     r0,[sp,#0x78]
        0x00000178:    e3a00014    ....    MOV      r0,#0x14
        0x0000017c:    e1cd07ba    ....    STRH     r0,[sp,#0x7a]
        0x00000180:    e3a00603    ....    MOV      r0,#0x300000
        0x00000184:    e58d007c    |...    STR      r0,[sp,#0x7c]
        0x00000188:    e3a00000    ....    MOV      r0,#0
        0x0000018c:    e5cd0080    ....    STRB     r0,[sp,#0x80]
        0x00000190:    e3a00019    ....    MOV      r0,#0x19
        0x00000194:    e58d0084    ....    STR      r0,[sp,#0x84]
        0x00000198:    e3a01000    ....    MOV      r1,#0
        0x0000019c:    e28f0d0a    ....    ADR      r0,{pc}+0x288 ; 0x424
        0x000001a0:    ef000500    ....    SVC      #0x500 ; formerly SWI
        0x000001a4:    e1a06000    .`..    MOV      r6,r0
        0x000001a8:    e3560000    ..V.    CMP      r6,#0
        0x000001ac:    0a000011    ....    BEQ      0x1f8 ; jpeg_enc_test + 504
        0x000001b0:    e28f2f9f    ./..    ADR      r2,{pc}+0x284 ; 0x434
        0x000001b4:    e3a010f9    ....    MOV      r1,#0xf9
        0x000001b8:    e28f0d0a    ....    ADR      r0,{pc}+0x288 ; 0x440
        0x000001bc:    eb0009bb    ....    BL       eLIBs_printf ; 0x28b0
        0x000001c0:    e1a01006    ....    MOV      r1,r6
        0x000001c4:    e28f0fa1    ....    ADR      r0,{pc}+0x28c ; 0x450
        0x000001c8:    eb0009b8    ....    BL       eLIBs_printf ; 0x28b0
        0x000001cc:    e20600ff    ....    AND      r0,r6,#0xff
        0x000001d0:    e3a01000    ....    MOV      r1,#0
        0x000001d4:    ef000502    ....    SVC      #0x502 ; formerly SWI
        0x000001d8:    e58d00c4    ....    STR      r0,[sp,#0xc4]
        0x000001dc:    e28f2e25    %...    ADR      r2,{pc}+0x258 ; 0x434
        0x000001e0:    e3a010fb    ....    MOV      r1,#0xfb
        0x000001e4:    e28f0f95    ....    ADR      r0,{pc}+0x25c ; 0x440
        0x000001e8:    eb0009b0    ....    BL       eLIBs_printf ; 0x28b0
        0x000001ec:    e28f0fa6    ....    ADR      r0,{pc}+0x2a0 ; 0x48c
        0x000001f0:    e59d10c4    ....    LDR      r1,[sp,#0xc4]
        0x000001f4:    eb0009ad    ....    BL       eLIBs_printf ; 0x28b0
        0x000001f8:    e3a03000    .0..    MOV      r3,#0
        0x000001fc:    e3a02000    . ..    MOV      r2,#0
        0x00000200:    e3a01035    5...    MOV      r1,#0x35
        0x00000204:    e59d00c4    ....    LDR      r0,[sp,#0xc4]
        0x00000208:    ef000506    ....    SVC      #0x506 ; formerly SWI
        0x0000020c:    e58d00c8    ....    STR      r0,[sp,#0xc8]
        0x00000210:    e28f2f87    ./..    ADR      r2,{pc}+0x224 ; 0x434
        0x00000214:    e3a010ff    ....    MOV      r1,#0xff
        0x00000218:    e28f0e22    "...    ADR      r0,{pc}+0x228 ; 0x440
        0x0000021c:    eb0009a3    ....    BL       eLIBs_printf ; 0x28b0
        0x00000220:    e28f0fa6    ....    ADR      r0,{pc}+0x2a0 ; 0x4c0
        0x00000224:    e59d10c8    ....    LDR      r1,[sp,#0xc8]
        0x00000228:    eb0009a0    ....    BL       eLIBs_printf ; 0x28b0
        0x0000022c:    e3a03502    .5..    MOV      r3,#0x800000
        0x00000230:    e3a01014    ....    MOV      r1,#0x14
        0x00000234:    e59d00c4    ....    LDR      r0,[sp,#0xc4]
        0x00000238:    e59d20c8    . ..    LDR      r2,[sp,#0xc8]
        0x0000023c:    ef000506    ....    SVC      #0x506 ; formerly SWI
        0x00000240:    e3a03000    .0..    MOV      r3,#0
        0x00000244:    e3a01013    ....    MOV      r1,#0x13
        0x00000248:    e59d00c4    ....    LDR      r0,[sp,#0xc4]
        0x0000024c:    e59d20c8    . ..    LDR      r2,[sp,#0xc8]
        0x00000250:    ef000506    ....    SVC      #0x506 ; formerly SWI
        0x00000254:    e28f2f76    v/..    ADR      r2,{pc}+0x1e0 ; 0x434
        0x00000258:    e59f126c    l...    LDR      r1,[pc,#620] ; [0x4cc] = 0x103
        0x0000025c:    e28f0f9b    ....    ADR      r0,{pc}+0x274 ; 0x4d0
        0x00000260:    eb000992    ....    BL       eLIBs_printf ; 0x28b0
        0x00000264:    e28d3058    X0..    ADD      r3,sp,#0x58
        0x00000268:    e3a01011    ....    MOV      r1,#0x11
        0x0000026c:    e59d00c4    ....    LDR      r0,[sp,#0xc4]
        0x00000270:    e59d20c8    . ..    LDR      r2,[sp,#0xc8]
        0x00000274:    ef000506    ....    SVC      #0x506 ; formerly SWI
        0x00000278:    e28f2f6d    m/..    ADR      r2,{pc}+0x1bc ; 0x434
        0x0000027c:    e59f1258    X...    LDR      r1,[pc,#600] ; [0x4dc] = 0x106
        0x00000280:    e28f0f92    ....    ADR      r0,{pc}+0x250 ; 0x4d0
        0x00000284:    eb000989    ....    BL       eLIBs_printf ; 0x28b0
        0x00000288:    e3a03000    .0..    MOV      r3,#0
        0x0000028c:    e3a01000    ....    MOV      r1,#0
        0x00000290:    e59d00c4    ....    LDR      r0,[sp,#0xc4]
        0x00000294:    e59d20c8    . ..    LDR      r2,[sp,#0xc8]
        0x00000298:    ef000506    ....    SVC      #0x506 ; formerly SWI
        0x0000029c:    e28f2e19    ....    ADR      r2,{pc}+0x198 ; 0x434
        0x000002a0:    e3a01f42    B...    MOV      r1,#0x108
        0x000002a4:    e28f0f89    ....    ADR      r0,{pc}+0x22c ; 0x4d0
        0x000002a8:    eb000980    ....    BL       eLIBs_printf ; 0x28b0
        0x000002ac:    e3a03000    .0..    MOV      r3,#0
        0x000002b0:    e3a01032    2...    MOV      r1,#0x32
        0x000002b4:    e59d00c4    ....    LDR      r0,[sp,#0xc4]
        0x000002b8:    e59d20c8    . ..    LDR      r2,[sp,#0xc8]
        0x000002bc:    ef000506    ....    SVC      #0x506 ; formerly SWI
        0x000002c0:    e28f2f5b    [/..    ADR      r2,{pc}+0x174 ; 0x434
        0x000002c4:    e3a01f43    C...    MOV      r1,#0x10c
        0x000002c8:    e28f0c02    ....    ADR      r0,{pc}+0x208 ; 0x4d0
        0x000002cc:    eb000977    w...    BL       eLIBs_printf ; 0x28b0
        0x000002d0:    e28d3088    .0..    ADD      r3,sp,#0x88
        0x000002d4:    e3a01020     ...    MOV      r1,#0x20
        0x000002d8:    e59d00c4    ....    LDR      r0,[sp,#0xc4]
        0x000002dc:    e59d20c8    . ..    LDR      r2,[sp,#0xc8]
        0x000002e0:    ef000506    ....    SVC      #0x506 ; formerly SWI
        0x000002e4:    e28d3008    .0..    ADD      r3,sp,#8
        0x000002e8:    e3a01021    !...    MOV      r1,#0x21
        0x000002ec:    e59d00c4    ....    LDR      r0,[sp,#0xc4]
        0x000002f0:    e59d20c8    . ..    LDR      r2,[sp,#0xc8]
        0x000002f4:    ef000506    ....    SVC      #0x506 ; formerly SWI
        0x000002f8:    e28f2f4d    M/..    ADR      r2,{pc}+0x13c ; 0x434
        0x000002fc:    e59f11dc    ....    LDR      r1,[pc,#476] ; [0x4e0] = 0x111
        0x00000300:    e28f0f72    r...    ADR      r0,{pc}+0x1d0 ; 0x4d0
        0x00000304:    eb000969    i...    BL       eLIBs_printf ; 0x28b0
        0x00000308:    e28d3018    .0..    ADD      r3,sp,#0x18
        0x0000030c:    e3a01022    "...    MOV      r1,#0x22
        0x00000310:    e59d00c4    ....    LDR      r0,[sp,#0xc4]
        0x00000314:    e59d20c8    . ..    LDR      r2,[sp,#0xc8]
        0x00000318:    ef000506    ....    SVC      #0x506 ; formerly SWI
        0x0000031c:    e28f2e11    ....    ADR      r2,{pc}+0x118 ; 0x434
        0x00000320:    e59f11bc    ....    LDR      r1,[pc,#444] ; [0x4e4] = 0x115
        0x00000324:    e28f0f69    i...    ADR      r0,{pc}+0x1ac ; 0x4d0
        0x00000328:    eb000960    `...    BL       eLIBs_printf ; 0x28b0
        0x0000032c:    e28f2c01    .,..    ADR      r2,{pc}+0x108 ; 0x434
        0x00000330:    e59f11b0    ....    LDR      r1,[pc,#432] ; [0x4e8] = 0x116
        0x00000334:    e28f0f41    A...    ADR      r0,{pc}+0x10c ; 0x440
        0x00000338:    eb00095c    \...    BL       eLIBs_printf ; 0x28b0
        0x0000033c:    e28f0f6a    j...    ADR      r0,{pc}+0x1b0 ; 0x4ec
        0x00000340:    e59d1020     ...    LDR      r1,[sp,#0x20]
        0x00000344:    e59d2028    ( ..    LDR      r2,[sp,#0x28]
        0x00000348:    eb000958    X...    BL       eLIBs_printf ; 0x28b0
        0x0000034c:    e1a03009    .0..    MOV      r3,r9
        0x00000350:    e3a01001    ....    MOV      r1,#1
        0x00000354:    e59d001c    ....    LDR      r0,[sp,#0x1c]
        0x00000358:    e59d2020      ..    LDR      r2,[sp,#0x20]
        0x0000035c:    eb000678    x...    BL       eLIBs_fwrite ; 0x1d44
        0x00000360:    e59d0028    (...    LDR      r0,[sp,#0x28]
        0x00000364:    e3500000    ..P.    CMP      r0,#0
        0x00000368:    0a000004    ....    BEQ      0x380 ; jpeg_enc_test + 896
        0x0000036c:    e1a03009    .0..    MOV      r3,r9
        0x00000370:    e3a01001    ....    MOV      r1,#1
        0x00000374:    e59d0024    $...    LDR      r0,[sp,#0x24]
        0x00000378:    e59d2028    ( ..    LDR      r2,[sp,#0x28]
        0x0000037c:    eb000670    p...    BL       eLIBs_fwrite ; 0x1d44
        0x00000380:    e1a03009    .0..    MOV      r3,r9
        0x00000384:    e3a02002    . ..    MOV      r2,#2
        0x00000388:    e3a01001    ....    MOV      r1,#1
        0x0000038c:    e28d0004    ....    ADD      r0,sp,#4
        0x00000390:    eb00066b    k...    BL       eLIBs_fwrite ; 0x1d44
        0x00000394:    e3a01023    #...    MOV      r1,#0x23
        0x00000398:    e59d00c4    ....    LDR      r0,[sp,#0xc4]
        0x0000039c:    e59d20c8    . ..    LDR      r2,[sp,#0xc8]
        0x000003a0:    e59d3018    .0..    LDR      r3,[sp,#0x18]
        0x000003a4:    ef000506    ....    SVC      #0x506 ; formerly SWI
        0x000003a8:    e3a03000    .0..    MOV      r3,#0
        0x000003ac:    e3a01001    ....    MOV      r1,#1
        0x000003b0:    e59d00c4    ....    LDR      r0,[sp,#0xc4]
        0x000003b4:    e59d20c8    . ..    LDR      r2,[sp,#0xc8]
        0x000003b8:    ef000506    ....    SVC      #0x506 ; formerly SWI
        0x000003bc:    e3a03000    .0..    MOV      r3,#0
        0x000003c0:    e3a01036    6...    MOV      r1,#0x36
        0x000003c4:    ea000055    U...    B        0x520 ; jpeg_enc_test + 1312
    $d
        0x000003c8:    0000d9ff    ....    DCD    55807
        0x000003cc:    00006272    rb..    DCD    25202
        0x000003d0:    795c3a66    f:\y    DCD    2036087398
        0x000003d4:    32347675    uv42    DCD    842298997
        0x000003d8:    63767530    0uvc    DCD    1668707632
        0x000003dc:    69626d6f    ombi    DCD    1768058223
        0x000003e0:    792d656e    ne-y    DCD    2033018222
        0x000003e4:    6e69622e    .bin    DCD    1852400174
        0x000003e8:    00000000    ....    DCD    0
        0x000003ec:    795c3a66    f:\y    DCD    2036087398
        0x000003f0:    32347675    uv42    DCD    842298997
        0x000003f4:    63767530    0uvc    DCD    1668707632
        0x000003f8:    69626d6f    ombi    DCD    1768058223
        0x000003fc:    752d656e    ne-u    DCD    1965909358
        0x00000400:    69622e76    v.bi    DCD    1768042102
        0x00000404:    0000006e    n...    DCD    110
        0x00000408:    00006277    wb..    DCD    25207
        0x0000040c:    795c3a66    f:\y    DCD    2036087398
        0x00000410:    32347675    uv42    DCD    842298997
        0x00000414:    636e6530    0enc    DCD    1668179248
        0x00000418:    2e65646f    ode.    DCD    778396783
        0x0000041c:    0067706a    jpg.    DCD    6778986
        0x00000420:    00007530    0u..    DCD    30000
        0x00000424:    765c3a46    F:\v    DCD    1985755718
        0x00000428:    5f636e65    enc_    DCD    1600351845
        0x0000042c:    2e706a6d    mjp.    DCD    779119213
        0x00000430:    00767264    drv.    DCD    7762532
        0x00000434:    6765706a    jpeg    DCD    1734701162
        0x00000438:    6573745f    _tse    DCD    1702065247
        0x0000043c:    00632e74    t.c.    DCD    6499956
        0x00000440:    3a47534d    MSG:    DCD    977752909
        0x00000444:    2864254c    L%d(    DCD    677651788
        0x00000448:    3a297325    %s):    DCD    975794981
        0x0000044c:    00000000    ....    DCD    0
        0x00000450:    63637573    succ    DCD    1667462515
        0x00000454:    20646565    eed     DCD    543450469
        0x00000458:    74736e69    inst    DCD    1953721961
        0x0000045c:    206c6c61    all     DCD    543976545
        0x00000460:    636e6576    venc    DCD    1668179318
        0x00000464:    706a6d5f    _mjp    DCD    1886023007
        0x00000468:    7672642e    .drv    DCD    1987208238
        0x0000046c:    696d2020      mi    DCD    1768759328
        0x00000470:    6f6c5f64    d_lo    DCD    1869373284
        0x00000474:    5f737574    tus_    DCD    1601402228
        0x00000478:    253d6469    id=%    DCD    624780393
        0x0000047c:    2e2e2e64    d...    DCD    774778468
        0x00000480:    2e2e2e2e    ....    DCD    774778414
        0x00000484:    0a2e2e2e    ....    DCD    170798638
        0x00000488:    00000000    ....    DCD    0
        0x0000048c:    63637573    succ    DCD    1667462515
        0x00000490:    20646565    eed     DCD    543450469
        0x00000494:    74736e69    inst    DCD    1953721961
        0x00000498:    206c6c61    all     DCD    543976545
        0x0000049c:    636e6576    venc    DCD    1668179318
        0x000004a0:    706a6d5f    _mjp    DCD    1886023007
        0x000004a4:    7672642e    .drv    DCD    1987208238
        0x000004a8:    44702020      pD    DCD    1148198944
        0x000004ac:    253d7665    ev=%    DCD    624784997
        0x000004b0:    2e2e2e78    x...    DCD    774778488
        0x000004b4:    2e2e2e2e    ....    DCD    774778414
        0x000004b8:    0a2e2e2e    ....    DCD    170798638
        0x000004bc:    00000000    ....    DCD    0
        0x000004c0:    3d206469    id =    DCD    1025533033
        0x000004c4:    0a642520     %d.    DCD    174335264
        0x000004c8:    00000000    ....    DCD    0
        0x000004cc:    00000103    ....    DCD    259
        0x000004d0:    64254c40    @L%d    DCD    1680165952
        0x000004d4:    29732528    (%s)    DCD    695412008
        0x000004d8:    0000000a    ....    DCD    10
        0x000004dc:    00000106    ....    DCD    262
        0x000004e0:    00000111    ....    DCD    273
        0x000004e4:    00000115    ....    DCD    277
        0x000004e8:    00000116    ....    DCD    278
        0x000004ec:    7074756f    outp    DCD    1886680431
        0x000004f0:    625f7475    ut_b    DCD    1650422901
        0x000004f4:    65666675    uffe    DCD    1701209717
        0x000004f8:    53752e72    r.uS    DCD    1400188530
        0x000004fc:    30657a69    ize0    DCD    811956841
        0x00000500:    2064253d    =%d     DCD    543434045
        0x00000504:    7074756f    outp    DCD    1886680431
        0x00000508:    625f7475    ut_b    DCD    1650422901
        0x0000050c:    65666675    uffe    DCD    1701209717
        0x00000510:    53752e72    r.uS    DCD    1400188530
        0x00000514:    31657a69    ize1    DCD    828734057
        0x00000518:    0a64253d    =%d.    DCD    174335293
        0x0000051c:    00000000    ....    DCD    0
    $a
        0x00000520:    e59d00c4    ....    LDR      r0,[sp,#0xc4]
        0x00000524:    e59d20c8    . ..    LDR      r2,[sp,#0xc8]
        0x00000528:    ef000506    ....    SVC      #0x506 ; formerly SWI
        0x0000052c:    e59d00c4    ....    LDR      r0,[sp,#0xc4]
        0x00000530:    ef000503    ....    SVC      #0x503 ; formerly SWI
        0x00000534:    e20600ff    ....    AND      r0,r6,#0xff
        0x00000538:    ef000501    ....    SVC      #0x501 ; formerly SWI
        0x0000053c:    e1a00009    ....    MOV      r0,r9
        0x00000540:    eb0005f6    ....    BL       eLIBs_fclose ; 0x1d20
        0x00000544:    e3a09000    ....    MOV      r9,#0
        0x00000548:    e28dd0cc    ....    ADD      sp,sp,#0xcc
        0x0000054c:    e8bd8ff0    ....    POP      {r4-r11,pc}
    $a
    .text
    test_display_driver
        0x00000550:    e92d4070    p@-.    PUSH     {r4-r6,lr}
        0x00000554:    e3a01000    ....    MOV      r1,#0
        0x00000558:    e28f00d4    ....    ADR      r0,{pc}+0xdc ; 0x634
        0x0000055c:    ef000500    ....    SVC      #0x500 ; formerly SWI
        0x00000560:    e20040ff    .@..    AND      r4,r0,#0xff
        0x00000564:    e1a01004    ....    MOV      r1,r4
        0x00000568:    e28f00d4    ....    ADR      r0,{pc}+0xdc ; 0x644
        0x0000056c:    eb0008cf    ....    BL       eLIBs_printf ; 0x28b0
        0x00000570:    e3a01000    ....    MOV      r1,#0
        0x00000574:    e1a00004    ....    MOV      r0,r4
        0x00000578:    ef000502    ....    SVC      #0x502 ; formerly SWI
        0x0000057c:    e1a05000    .P..    MOV      r5,r0
        0x00000580:    e1a01005    ....    MOV      r1,r5
        0x00000584:    e28f00d4    ....    ADR      r0,{pc}+0xdc ; 0x660
        0x00000588:    eb0008c8    ....    BL       eLIBs_printf ; 0x28b0
        0x0000058c:    e3a03000    .0..    MOV      r3,#0
        0x00000590:    e3a02000    . ..    MOV      r2,#0
        0x00000594:    e2421801    ..B.    SUB      r1,r2,#0x10000
        0x00000598:    e1a00005    ....    MOV      r0,r5
        0x0000059c:    ef000506    ....    SVC      #0x506 ; formerly SWI
        0x000005a0:    e3a00064    d...    MOV      r0,#0x64
        0x000005a4:    ef00010e    ....    SVC      #0x10e ; formerly SWI
        0x000005a8:    e28f10cc    ....    ADR      r1,{pc}+0xd4 ; 0x67c
        0x000005ac:    e28f00cc    ....    ADR      r0,{pc}+0xd4 ; 0x680
        0x000005b0:    eb0005d7    ....    BL       eLIBs_fopen ; 0x1d14
        0x000005b4:    e1a06000    .`..    MOV      r6,r0
        0x000005b8:    e1a01006    ....    MOV      r1,r6
        0x000005bc:    e28f00cc    ....    ADR      r0,{pc}+0xd4 ; 0x690
        0x000005c0:    eb0008ba    ....    BL       eLIBs_printf ; 0x28b0
        0x000005c4:    e3a00000    ....    MOV      r0,#0
        0x000005c8:    e8bd8070    p...    POP      {r4-r6,pc}
    test_jpeg_driver
        0x000005cc:    e92d4010    .@-.    PUSH     {r4,lr}
        0x000005d0:    ebfffe8a    ....    BL       jpeg_enc_test ; 0x0
        0x000005d4:    e3a00000    ....    MOV      r0,#0
        0x000005d8:    e8bd8010    ....    POP      {r4,pc}
    test_print_selection
        0x000005dc:    e92d4010    .@-.    PUSH     {r4,lr}
        0x000005e0:    e28f00b8    ....    ADR      r0,{pc}+0xc0 ; 0x6a0
        0x000005e4:    eb0008b1    ....    BL       eLIBs_printf ; 0x28b0
        0x000005e8:    e28f00e0    ....    ADR      r0,{pc}+0xe8 ; 0x6d0
        0x000005ec:    eb0008af    ....    BL       eLIBs_printf ; 0x28b0
        0x000005f0:    e28f0f42    B...    ADR      r0,{pc}+0x110 ; 0x700
        0x000005f4:    eb0008ad    ....    BL       eLIBs_printf ; 0x28b0
        0x000005f8:    ef000000    ....    SVC      #0x0 ; formerly SWI
        0x000005fc:    e1a04000    .@..    MOV      r4,r0
        0x00000600:    e204004f    O...    AND      r0,r4,#0x4f
        0x00000604:    e8bd8010    ....    POP      {r4,pc}
    test_app
        0x00000608:    e92d4010    .@-.    PUSH     {r4,lr}
        0x0000060c:    e28f0f47    G...    ADR      r0,{pc}+0x124 ; 0x730
        0x00000610:    eb0008a6    ....    BL       eLIBs_printf ; 0x28b0
        0x00000614:    ebfffff0    ....    BL       test_print_selection ; 0x5dc
        0x00000618:    e3500001    ..P.    CMP      r0,#1
        0x0000061c:    0a00004f    O...    BEQ      0x760 ; test_app + 344
        0x00000620:    e3500002    ..P.    CMP      r0,#2
        0x00000624:    0a000052    R...    BEQ      0x774 ; test_app + 364
        0x00000628:    e3500003    ..P.    CMP      r0,#3
        0x0000062c:    1a00005a    Z...    BNE      0x79c ; test_app + 404
        0x00000630:    ea000054    T...    B        0x788 ; test_app + 384
    $d
        0x00000634:    645c3a66    f:\d    DCD    1683765862
        0x00000638:    6c707369    ispl    DCD    1819308905
        0x0000063c:    642e7961    ay.d    DCD    1680767329
        0x00000640:    00007672    rv..    DCD    30322
        0x00000644:    74736e69    inst    DCD    1953721961
        0x00000648:    206c6c61    all     DCD    543976545
        0x0000064c:    70736964    disp    DCD    1886611812
        0x00000650:    2e79616c    lay.    DCD    779706732
        0x00000654:    20767264    drv     DCD    544633444
        0x00000658:    3d64696d    mid=    DCD    1029990765
        0x0000065c:    000a6425    %d..    DCD    680997
        0x00000660:    6e65706f    open    DCD    1852141679
        0x00000664:    73696420     dis    DCD    1936286752
        0x00000668:    79616c70    play    DCD    2036427888
        0x0000066c:    7672642e    .drv    DCD    1987208238
        0x00000670:    72446820     hDr    DCD    1917085728
        0x00000674:    78253d76    v=%x    DCD    2015706486
        0x00000678:    0000000a    ....    DCD    10
        0x0000067c:    00002b72    r+..    DCD    11122
        0x00000680:    445c3a62    b:\D    DCD    1146894946
        0x00000684:    5c505349    ISP\    DCD    1548768073
        0x00000688:    50534944    DISP    DCD    1347635524
        0x0000068c:    0059414c    LAY.    DCD    5849420
        0x00000690:    73696420     dis    DCD    1936286752
        0x00000694:    79616c70    play    DCD    2036427888
        0x00000698:    3d706620     fp=    DCD    1030776352
        0x0000069c:    000a7825    %x..    DCD    686117
        0x000006a0:    74203109    .1 t    DCD    1948266761
        0x000006a4:    20747365    est     DCD    544502629
        0x000006a8:    70736964    disp    DCD    1886611812
        0x000006ac:    2079616c    lay     DCD    544825708
        0x000006b0:    2e2e2e2e    ....    DCD    774778414
        0x000006b4:    2e2e2e2e    ....    DCD    774778414
        0x000006b8:    2e2e2e2e    ....    DCD    774778414
        0x000006bc:    2e2e2e2e    ....    DCD    774778414
        0x000006c0:    2e2e2e2e    ....    DCD    774778414
        0x000006c4:    2e2e2e2e    ....    DCD    774778414
        0x000006c8:    2e2e2e2e    ....    DCD    774778414
        0x000006cc:    000a2e2e    ....    DCD    667182
        0x000006d0:    74203209    .2 t    DCD    1948267017
        0x000006d4:    20747365    est     DCD    544502629
        0x000006d8:    20697363    csi     DCD    543781731
        0x000006dc:    2e2e2e2e    ....    DCD    774778414
        0x000006e0:    2e2e2e2e    ....    DCD    774778414
        0x000006e4:    2e2e2e2e    ....    DCD    774778414
        0x000006e8:    2e2e2e2e    ....    DCD    774778414
        0x000006ec:    2e2e2e2e    ....    DCD    774778414
        0x000006f0:    2e2e2e2e    ....    DCD    774778414
        0x000006f4:    2e2e2e2e    ....    DCD    774778414
        0x000006f8:    2e2e2e2e    ....    DCD    774778414
        0x000006fc:    000a2e2e    ....    DCD    667182
        0x00000700:    74203309    .3 t    DCD    1948267273
        0x00000704:    20747365    est     DCD    544502629
        0x00000708:    6765706a    jpeg    DCD    1734701162
        0x0000070c:    2e2e2e20     ...    DCD    774778400
        0x00000710:    2e2e2e2e    ....    DCD    774778414
        0x00000714:    2e2e2e2e    ....    DCD    774778414
        0x00000718:    2e2e2e2e    ....    DCD    774778414
        0x0000071c:    2e2e2e2e    ....    DCD    774778414
        0x00000720:    2e2e2e2e    ....    DCD    774778414
        0x00000724:    2e2e2e2e    ....    DCD    774778414
        0x00000728:    2e2e2e2e    ....    DCD    774778414
        0x0000072c:    000a2e2e    ....    DCD    667182
        0x00000730:    72617473    star    DCD    1918989427
        0x00000734:    6f742074    t to    DCD    1869881460
        0x00000738:    73657420     tes    DCD    1936028704
        0x0000073c:    6c702074    t pl    DCD    1819287668
        0x00000740:    65736165    ease    DCD    1702060389
        0x00000744:    706e6920     inp    DCD    1886284064
        0x00000748:    73207475    ut s    DCD    1931506805
        0x0000074c:    63656c65    elec    DCD    1667591269
        0x00000750:    6e6f6974    tion    DCD    1852795252
        0x00000754:    206f7420     to     DCD    544175136
        0x00000758:    74736574    test    DCD    1953719668
        0x0000075c:    000a3a20     :..    DCD    670240
    $a
        0x00000760:    e1a00000    ....    MOV      r0,r0
        0x00000764:    e28f0054    T...    ADR      r0,{pc}+0x5c ; 0x7c0
        0x00000768:    eb000850    P...    BL       eLIBs_printf ; 0x28b0
        0x0000076c:    ebffff77    w...    BL       test_display_driver ; 0x550
        0x00000770:    ea00000d    ....    B        0x7ac ; test_app + 420
        0x00000774:    e1a00000    ....    MOV      r0,r0
        0x00000778:    e28f0058    X...    ADR      r0,{pc}+0x60 ; 0x7d8
        0x0000077c:    eb00084b    K...    BL       eLIBs_printf ; 0x28b0
        0x00000780:    eb00054e    N...    BL       test_csi ; 0x1cc0
        0x00000784:    ea000008    ....    B        0x7ac ; test_app + 420
        0x00000788:    e1a00000    ....    MOV      r0,r0
        0x0000078c:    e28f0058    X...    ADR      r0,{pc}+0x60 ; 0x7ec
        0x00000790:    eb000846    F...    BL       eLIBs_printf ; 0x28b0
        0x00000794:    ebffff8c    ....    BL       test_jpeg_driver ; 0x5cc
        0x00000798:    ea000003    ....    B        0x7ac ; test_app + 420
        0x0000079c:    e1a00000    ....    MOV      r0,r0
        0x000007a0:    e28f0058    X...    ADR      r0,{pc}+0x60 ; 0x800
        0x000007a4:    eb000841    A...    BL       eLIBs_printf ; 0x28b0
        0x000007a8:    e1a00000    ....    MOV      r0,r0
        0x000007ac:    e1a00000    ....    MOV      r0,r0
        0x000007b0:    ea000001    ....    B        0x7bc ; test_app + 436
        0x000007b4:    e3a00ffa    ....    MOV      r0,#0x3e8
        0x000007b8:    ef00010e    ....    SVC      #0x10e ; formerly SWI
        0x000007bc:    eafffffc    ....    B        0x7b4 ; test_app + 428
    $d
        0x000007c0:    72617473    star    DCD    1918989427
        0x000007c4:    6f742074    t to    DCD    1869881460
        0x000007c8:    73657420     tes    DCD    1936028704
        0x000007cc:    69642074    t di    DCD    1768169588
        0x000007d0:    616c7073    spla    DCD    1634496627
        0x000007d4:    00000a79    y...    DCD    2681
        0x000007d8:    72617473    star    DCD    1918989427
        0x000007dc:    6f742074    t to    DCD    1869881460
        0x000007e0:    73657420     tes    DCD    1936028704
        0x000007e4:    73632074    t cs    DCD    1935876212
        0x000007e8:    00000a69    i...    DCD    2665
        0x000007ec:    72617473    star    DCD    1918989427
        0x000007f0:    6f742074    t to    DCD    1869881460
        0x000007f4:    73657420     tes    DCD    1936028704
        0x000007f8:    706a2074    t jp    DCD    1886003316
        0x000007fc:    000a6765    eg..    DCD    681829
        0x00000800:    6f727265    erro    DCD    1869771365
        0x00000804:    65732072    r se    DCD    1702043762
        0x00000808:    7463656c    lect    DCD    1952671084
        0x0000080c:    0a6e6f69    ion.    DCD    175009641
        0x00000810:    00000000    ....    DCD    0
    $a
    .text
    asc2bin
        0x00000814:    e350002f    /.P.    CMP      r0,#0x2f
        0x00000818:    da000004    ....    BLE      0x830 ; asc2bin + 28
        0x0000081c:    e350003a    :.P.    CMP      r0,#0x3a
        0x00000820:    aa000002    ....    BGE      0x830 ; asc2bin + 28
        0x00000824:    e2401030    0.@.    SUB      r1,r0,#0x30
        0x00000828:    e201000f    ....    AND      r0,r1,#0xf
        0x0000082c:    ea00000e    ....    B        0x86c ; asc2bin + 88
        0x00000830:    e3500040    @.P.    CMP      r0,#0x40
        0x00000834:    da000004    ....    BLE      0x84c ; asc2bin + 56
        0x00000838:    e3500047    G.P.    CMP      r0,#0x47
        0x0000083c:    aa000002    ....    BGE      0x84c ; asc2bin + 56
        0x00000840:    e2401037    7.@.    SUB      r1,r0,#0x37
        0x00000844:    e201000f    ....    AND      r0,r1,#0xf
        0x00000848:    ea000007    ....    B        0x86c ; asc2bin + 88
        0x0000084c:    e3500060    `.P.    CMP      r0,#0x60
        0x00000850:    da000004    ....    BLE      0x868 ; asc2bin + 84
        0x00000854:    e3500067    g.P.    CMP      r0,#0x67
        0x00000858:    aa000002    ....    BGE      0x868 ; asc2bin + 84
        0x0000085c:    e2401057    W.@.    SUB      r1,r0,#0x57
        0x00000860:    e201000f    ....    AND      r0,r1,#0xf
        0x00000864:    ea000000    ....    B        0x86c ; asc2bin + 88
        0x00000868:    e3a000ff    ....    MOV      r0,#0xff
        0x0000086c:    e12fff1e    ../.    BX       lr
    generate_frame_id
        0x00000870:    e1a01000    ....    MOV      r1,r0
        0x00000874:    e59fc18c    ....    LDR      r12,[pc,#396] ; [0xa08] = 0x3200
        0x00000878:    e59c3000    .0..    LDR      r3,[r12,#0]
        0x0000087c:    e1a0cfc3    ....    ASR      r12,r3,#31
        0x00000880:    e083ce2c    ,...    ADD      r12,r3,r12,LSR #28
        0x00000884:    e1a0c24c    L...    ASR      r12,r12,#4
        0x00000888:    e043220c    ."C.    SUB      r2,r3,r12,LSL #4
        0x0000088c:    e1810202    ....    ORR      r0,r1,r2,LSL #4
        0x00000890:    e12fff1e    ../.    BX       lr
    app_main
        0x00000894:    e92d4ff1    .O-.    PUSH     {r0,r4-r11,lr}
        0x00000898:    e24dde4e    N.M.    SUB      sp,sp,#0x4e0
        0x0000089c:    e3a00000    ....    MOV      r0,#0
        0x000008a0:    e58d04dc    ....    STR      r0,[sp,#0x4dc]
        0x000008a4:    e58d04d8    ....    STR      r0,[sp,#0x4d8]
        0x000008a8:    e58d04d4    ....    STR      r0,[sp,#0x4d4]
        0x000008ac:    e58d04d0    ....    STR      r0,[sp,#0x4d0]
        0x000008b0:    e58d04cc    ....    STR      r0,[sp,#0x4cc]
        0x000008b4:    e58d04c8    ....    STR      r0,[sp,#0x4c8]
        0x000008b8:    e58d04c4    ....    STR      r0,[sp,#0x4c4]
        0x000008bc:    e58d04c0    ....    STR      r0,[sp,#0x4c0]
        0x000008c0:    e58d04bc    ....    STR      r0,[sp,#0x4bc]
        0x000008c4:    e58d04b8    ....    STR      r0,[sp,#0x4b8]
        0x000008c8:    e3a0a000    ....    MOV      r10,#0
        0x000008cc:    e3a07000    .p..    MOV      r7,#0
        0x000008d0:    e3a05000    .P..    MOV      r5,#0
        0x000008d4:    e3a01044    D...    MOV      r1,#0x44
        0x000008d8:    e28d0014    ....    ADD      r0,sp,#0x14
        0x000008dc:    eb0008c2    ....    BL       __aeabi_memclr4 ; 0x2bec
        0x000008e0:    e3a08000    ....    MOV      r8,#0
        0x000008e4:    e1a00000    ....    MOV      r0,r0
        0x000008e8:    e28f0f47    G...    ADR      r0,{pc}+0x124 ; 0xa0c
        0x000008ec:    eb0007ef    ....    BL       eLIBs_printf ; 0x28b0
        0x000008f0:    e28f0e12    ....    ADR      r0,{pc}+0x128 ; 0xa18
        0x000008f4:    eb0007ed    ....    BL       eLIBs_printf ; 0x28b0
        0x000008f8:    e3a00000    ....    MOV      r0,#0
        0x000008fc:    e58d04dc    ....    STR      r0,[sp,#0x4dc]
        0x00000900:    e59d04dc    ....    LDR      r0,[sp,#0x4dc]
        0x00000904:    e58d04dc    ....    STR      r0,[sp,#0x4dc]
        0x00000908:    e28f0f4b    K...    ADR      r0,{pc}+0x134 ; 0xa3c
        0x0000090c:    e59d14dc    ....    LDR      r1,[sp,#0x4dc]
        0x00000910:    eb0007e6    ....    BL       eLIBs_printf ; 0x28b0
        0x00000914:    e59d04dc    ....    LDR      r0,[sp,#0x4dc]
        0x00000918:    e3500000    ..P.    CMP      r0,#0
        0x0000091c:    1a00001e    ....    BNE      0x99c ; app_main + 264
        0x00000920:    e3a01000    ....    MOV      r1,#0
        0x00000924:    e28f0f45    E...    ADR      r0,{pc}+0x11c ; 0xa40
        0x00000928:    ef000500    ....    SVC      #0x500 ; formerly SWI
        0x0000092c:    e20040ff    .@..    AND      r4,r0,#0xff
        0x00000930:    e1a01004    ....    MOV      r1,r4
        0x00000934:    e28f0e11    ....    ADR      r0,{pc}+0x118 ; 0xa4c
        0x00000938:    eb0007dc    ....    BL       eLIBs_printf ; 0x28b0
        0x0000093c:    e3a01000    ....    MOV      r1,#0
        0x00000940:    e1a00004    ....    MOV      r0,r4
        0x00000944:    ef000502    ....    SVC      #0x502 ; formerly SWI
        0x00000948:    e1a0b000    ....    MOV      r11,r0
        0x0000094c:    e1a0100b    ....    MOV      r1,r11
        0x00000950:    e28f0e11    ....    ADR      r0,{pc}+0x118 ; 0xa68
        0x00000954:    eb0007d5    ....    BL       eLIBs_printf ; 0x28b0
        0x00000958:    e3a03000    .0..    MOV      r3,#0
        0x0000095c:    e3a02000    . ..    MOV      r2,#0
        0x00000960:    e2421801    ..B.    SUB      r1,r2,#0x10000
        0x00000964:    e1a0000b    ....    MOV      r0,r11
        0x00000968:    ef000506    ....    SVC      #0x506 ; formerly SWI
        0x0000096c:    e3a00064    d...    MOV      r0,#0x64
        0x00000970:    ef00010e    ....    SVC      #0x10e ; formerly SWI
        0x00000974:    e28f1f42    B...    ADR      r1,{pc}+0x110 ; 0xa84
        0x00000978:    e28f0f42    B...    ADR      r0,{pc}+0x110 ; 0xa88
        0x0000097c:    eb0004e4    ....    BL       eLIBs_fopen ; 0x1d14
        0x00000980:    e59f110c    ....    LDR      r1,[pc,#268] ; [0xa94] = 0x31d0
        0x00000984:    e5810000    ....    STR      r0,[r1,#0]
        0x00000988:    e2810000    ....    ADD      r0,r1,#0
        0x0000098c:    e5901000    ....    LDR      r1,[r0,#0]
        0x00000990:    e28f0c01    ....    ADR      r0,{pc}+0x108 ; 0xa98
        0x00000994:    eb0007c5    ....    BL       eLIBs_printf ; 0x28b0
        0x00000998:    ea000009    ....    B        0x9c4 ; app_main + 304
        0x0000099c:    e3a03001    .0..    MOV      r3,#1
        0x000009a0:    e3a02000    . ..    MOV      r2,#0
        0x000009a4:    e3a01000    ....    MOV      r1,#0
        0x000009a8:    e28f0c01    ....    ADR      r0,{pc}+0x108 ; 0xab0
        0x000009ac:    ef000e00    ....    SVC      #0xe00 ; formerly SWI
        0x000009b0:    e28f10cc    ....    ADR      r1,{pc}+0xd4 ; 0xa84
        0x000009b4:    e28f0f41    A...    ADR      r0,{pc}+0x10c ; 0xac0
        0x000009b8:    eb0004d5    ....    BL       eLIBs_fopen ; 0x1d14
        0x000009bc:    e59f10d0    ....    LDR      r1,[pc,#208] ; [0xa94] = 0x31d0
        0x000009c0:    e5810000    ....    STR      r0,[r1,#0]
        0x000009c4:    e28f0f41    A...    ADR      r0,{pc}+0x10c ; 0xad0
        0x000009c8:    eb0007b8    ....    BL       eLIBs_printf ; 0x28b0
        0x000009cc:    e59f00c0    ....    LDR      r0,[pc,#192] ; [0xa94] = 0x31d0
        0x000009d0:    e5900000    ....    LDR      r0,[r0,#0]
        0x000009d4:    e3500000    ..P.    CMP      r0,#0
        0x000009d8:    1a000050    P...    BNE      0xb20 ; 0xb20
        0x000009dc:    e28f2f42    B/..    ADR      r2,{pc}+0x110 ; 0xaec
        0x000009e0:    e3a010eb    ....    MOV      r1,#0xeb
        0x000009e4:    e28f0f43    C...    ADR      r0,{pc}+0x114 ; 0xaf8
        0x000009e8:    eb0007b0    ....    BL       eLIBs_printf ; 0x28b0
        0x000009ec:    e28f0f45    E...    ADR      r0,{pc}+0x11c ; 0xb08
        0x000009f0:    eb0007ae    ....    BL       eLIBs_printf ; 0x28b0
        0x000009f4:    ef000f05    ....    SVC      #0xf05 ; formerly SWI
        0x000009f8:    e3e00000    ....    MVN      r0,#0
        0x000009fc:    e28ddb01    ....    ADD      sp,sp,#0x400
        0x00000a00:    e28dd0e4    ....    ADD      sp,sp,#0xe4
        0x00000a04:    e8bd8ff0    ....    POP      {r4-r11,pc}
    $d
        0x00000a08:    00003200    .2..    DCD    12800
        0x00000a0c:    20697363    csi     DCD    543781731
        0x00000a10:    6c6c6568    hell    DCD    1819043176
        0x00000a14:    000a216f    o!..    DCD    663919
        0x00000a18:    61656c70    plea    DCD    1634036848
        0x00000a1c:    73206573    se s    DCD    1931502963
        0x00000a20:    63656c65    elec    DCD    1667591269
        0x00000a24:    73632074    t cs    DCD    1935876212
        0x00000a28:    68632069    i ch    DCD    1751326825
        0x00000a2c:    656e6e61    anne    DCD    1701736033
        0x00000a30:    2f30286c    l(0/    DCD    791685228
        0x00000a34:    203a2931    1):     DCD    540682545
        0x00000a38:    00000000    ....    DCD    0
        0x00000a3c:    000a6425    %d..    DCD    680997
        0x00000a40:    635c3a66    f:\c    DCD    1666988646
        0x00000a44:    642e6973    si.d    DCD    1680763251
        0x00000a48:    00007672    rv..    DCD    30322
        0x00000a4c:    74736e69    inst    DCD    1953721961
        0x00000a50:    206c6c61    all     DCD    543976545
        0x00000a54:    5f697363    csi_    DCD    1600746339
        0x00000a58:    2e686332    2ch.    DCD    778593074
        0x00000a5c:    20767264    drv     DCD    544633444
        0x00000a60:    3d64696d    mid=    DCD    1029990765
        0x00000a64:    000a6425    %d..    DCD    680997
        0x00000a68:    6e65706f    open    DCD    1852141679
        0x00000a6c:    69736320     csi    DCD    1769169696
        0x00000a70:    6863325f    _2ch    DCD    1751331423
        0x00000a74:    7672642e    .drv    DCD    1987208238
        0x00000a78:    72446820     hDr    DCD    1917085728
        0x00000a7c:    78253d76    v=%x    DCD    2015706486
        0x00000a80:    0000000a    ....    DCD    10
        0x00000a84:    00002b72    r+..    DCD    11122
        0x00000a88:    555c3a62    b:\U    DCD    1432107618
        0x00000a8c:    5c524553    SER\    DCD    1548895571
        0x00000a90:    00495343    CSI.    DCD    4805443
        0x00000a94:    000031d0    .1..    DCD    12752
        0x00000a98:    6e65706f    open    DCD    1852141679
        0x00000a9c:    5c3a6220     b:\    DCD    1547330080
        0x00000aa0:    52455355    USER    DCD    1380275029
        0x00000aa4:    4953435c    \CSI    DCD    1230193500
        0x00000aa8:    3d706620     fp=    DCD    1030776352
        0x00000aac:    000a7825    %x..    DCD    686117
        0x00000ab0:    7672645c    \drv    DCD    1987208284
        0x00000ab4:    6973635c    \csi    DCD    1769169756
        0x00000ab8:    72642e31    1.dr    DCD    1919168049
        0x00000abc:    00000076    v...    DCD    118
        0x00000ac0:    555c3a62    b:\U    DCD    1432107618
        0x00000ac4:    5c524553    SER\    DCD    1548895571
        0x00000ac8:    31495343    CSI1    DCD    826889027
        0x00000acc:    00000000    ....    DCD    0
        0x00000ad0:    20697363    csi     DCD    543781731
        0x00000ad4:    76697264    driv    DCD    1986622052
        0x00000ad8:    70207265    er p    DCD    1881174629
        0x00000adc:    6967756c    lugi    DCD    1768387948
        0x00000ae0:    7573206e    n su    DCD    1970479214
        0x00000ae4:    73656363    cces    DCD    1936024419
        0x00000ae8:    000a2173    s!..    DCD    663923
    |L1.728|
        0x00000aec:    74736574    test    DCD    1953719668
        0x00000af0:    6973635f    _csi    DCD    1769169759
        0x00000af4:    0000632e    .c..    DCD    25390
    |L1.740|
        0x00000af8:    3a525245    ERR:    DCD    978473541
        0x00000afc:    2864254c    L%d(    DCD    677651788
        0x00000b00:    3a297325    %s):    DCD    975794981
        0x00000b04:    00000000    ....    DCD    0
        0x00000b08:    20697363    csi     DCD    543781731
        0x00000b0c:    76697264    driv    DCD    1986622052
        0x00000b10:    6f207265    er o    DCD    1864397413
        0x00000b14:    206e6570    pen     DCD    544105840
        0x00000b18:    6c696166    fail    DCD    1818845542
        0x00000b1c:    000a6465    ed..    DCD    681061
    $a
        0x00000b20:    e51f0094    ....    LDR      r0,[pc,#-148] ; [0xa94] = 0x31d0
        0x00000b24:    e5901000    ....    LDR      r1,[r0,#0]
        0x00000b28:    e28f0e22    "...    ADR      r0,{pc}+0x228 ; 0xd50
        0x00000b2c:    eb00075f    _...    BL       eLIBs_printf ; 0x28b0
        0x00000b30:    e3a03000    .0..    MOV      r3,#0
        0x00000b34:    e3a02000    . ..    MOV      r2,#0
        0x00000b38:    e3a01001    ....    MOV      r1,#1
        0x00000b3c:    e51f00b0    ....    LDR      r0,[pc,#-176] ; [0xa94] = 0x31d0
        0x00000b40:    e5900000    ....    LDR      r0,[r0,#0]
        0x00000b44:    eb000497    ....    BL       eLIBs_fioctrl ; 0x1da8
        0x00000b48:    e59dc4dc    ....    LDR      r12,[sp,#0x4dc]
        0x00000b4c:    e08c030c    ....    ADD      r0,r12,r12,LSL #6
        0x00000b50:    e28d1e2b    +...    ADD      r1,sp,#0x2b0
        0x00000b54:    e0813100    .1..    ADD      r3,r1,r0,LSL #2
        0x00000b58:    e3a02000    . ..    MOV      r2,#0
        0x00000b5c:    e3a01005    ....    MOV      r1,#5
        0x00000b60:    e51f00d4    ....    LDR      r0,[pc,#-212] ; [0xa94] = 0x31d0
        0x00000b64:    e5900000    ....    LDR      r0,[r0,#0]
        0x00000b68:    eb00048e    ....    BL       eLIBs_fioctrl ; 0x1da8
        0x00000b6c:    e3a00000    ....    MOV      r0,#0
        0x00000b70:    e58d04d4    ....    STR      r0,[sp,#0x4d4]
        0x00000b74:    ea000055    U...    B        0xcd0 ; 0xcd0
        0x00000b78:    e28f0f7d    }...    ADR      r0,{pc}+0x1fc ; 0xd74
        0x00000b7c:    eb00074b    K...    BL       eLIBs_printf ; 0x28b0
        0x00000b80:    e28f0f82    ....    ADR      r0,{pc}+0x210 ; 0xd90
        0x00000b84:    e59d14d4    ....    LDR      r1,[sp,#0x4d4]
        0x00000b88:    eb000748    H...    BL       eLIBs_printf ; 0x28b0
        0x00000b8c:    e59dc4dc    ....    LDR      r12,[sp,#0x4dc]
        0x00000b90:    e08c030c    ....    ADD      r0,r12,r12,LSL #6
        0x00000b94:    e28d3e2b    +>..    ADD      r3,sp,#0x2b0
        0x00000b98:    e0830100    ....    ADD      r0,r3,r0,LSL #2
        0x00000b9c:    e2800004    ....    ADD      r0,r0,#4
        0x00000ba0:    e59d34d4    .4..    LDR      r3,[sp,#0x4d4]
        0x00000ba4:    e0800283    ....    ADD      r0,r0,r3,LSL #5
        0x00000ba8:    e5902010    . ..    LDR      r2,[r0,#0x10]
        0x00000bac:    e08c030c    ....    ADD      r0,r12,r12,LSL #6
        0x00000bb0:    e28d3e2b    +>..    ADD      r3,sp,#0x2b0
        0x00000bb4:    e0830100    ....    ADD      r0,r3,r0,LSL #2
        0x00000bb8:    e2800004    ....    ADD      r0,r0,#4
        0x00000bbc:    e59d34d4    .4..    LDR      r3,[sp,#0x4d4]
        0x00000bc0:    e0800283    ....    ADD      r0,r0,r3,LSL #5
        0x00000bc4:    e590100c    ....    LDR      r1,[r0,#0xc]
        0x00000bc8:    e28f0f75    u...    ADR      r0,{pc}+0x1dc ; 0xda4
        0x00000bcc:    eb000737    7...    BL       eLIBs_printf ; 0x28b0
        0x00000bd0:    e59dc4dc    ....    LDR      r12,[sp,#0x4dc]
        0x00000bd4:    e08c030c    ....    ADD      r0,r12,r12,LSL #6
        0x00000bd8:    e28d2e2b    +...    ADD      r2,sp,#0x2b0
        0x00000bdc:    e0820100    ....    ADD      r0,r2,r0,LSL #2
        0x00000be0:    e2800004    ....    ADD      r0,r0,#4
        0x00000be4:    e59d34d4    .4..    LDR      r3,[sp,#0x4d4]
        0x00000be8:    e0800283    ....    ADD      r0,r0,r3,LSL #5
        0x00000bec:    e5901014    ....    LDR      r1,[r0,#0x14]
        0x00000bf0:    e28f0f6f    o...    ADR      r0,{pc}+0x1c4 ; 0xdb4
        0x00000bf4:    eb00072d    -...    BL       eLIBs_printf ; 0x28b0
        0x00000bf8:    e59dc4dc    ....    LDR      r12,[sp,#0x4dc]
        0x00000bfc:    e08c030c    ....    ADD      r0,r12,r12,LSL #6
        0x00000c00:    e28d2e2b    +...    ADD      r2,sp,#0x2b0
        0x00000c04:    e0820100    ....    ADD      r0,r2,r0,LSL #2
        0x00000c08:    e2800004    ....    ADD      r0,r0,#4
        0x00000c0c:    e59d34d4    .4..    LDR      r3,[sp,#0x4d4]
        0x00000c10:    e7d01283    ....    LDRB     r1,[r0,r3,LSL #5]
        0x00000c14:    e28f0f6b    k...    ADR      r0,{pc}+0x1b4 ; 0xdc8
        0x00000c18:    eb000724    $...    BL       eLIBs_printf ; 0x28b0
        0x00000c1c:    e59dc4dc    ....    LDR      r12,[sp,#0x4dc]
        0x00000c20:    e08c030c    ....    ADD      r0,r12,r12,LSL #6
        0x00000c24:    e28d2e2b    +...    ADD      r2,sp,#0x2b0
        0x00000c28:    e0820100    ....    ADD      r0,r2,r0,LSL #2
        0x00000c2c:    e2800004    ....    ADD      r0,r0,#4
        0x00000c30:    e59d34d4    .4..    LDR      r3,[sp,#0x4d4]
        0x00000c34:    e0800283    ....    ADD      r0,r0,r3,LSL #5
        0x00000c38:    e5901018    ....    LDR      r1,[r0,#0x18]
        0x00000c3c:    e28f0f66    f...    ADR      r0,{pc}+0x1a0 ; 0xddc
        0x00000c40:    eb00071a    ....    BL       eLIBs_printf ; 0x28b0
        0x00000c44:    e59dc4dc    ....    LDR      r12,[sp,#0x4dc]
        0x00000c48:    e08c030c    ....    ADD      r0,r12,r12,LSL #6
        0x00000c4c:    e28d2e2b    +...    ADD      r2,sp,#0x2b0
        0x00000c50:    e0820100    ....    ADD      r0,r2,r0,LSL #2
        0x00000c54:    e2800004    ....    ADD      r0,r0,#4
        0x00000c58:    e59d34d4    .4..    LDR      r3,[sp,#0x4d4]
        0x00000c5c:    e0800283    ....    ADD      r0,r0,r3,LSL #5
        0x00000c60:    e5901004    ....    LDR      r1,[r0,#4]
        0x00000c64:    e28f0f61    a...    ADR      r0,{pc}+0x18c ; 0xdf0
        0x00000c68:    eb000710    ....    BL       eLIBs_printf ; 0x28b0
        0x00000c6c:    e59dc4dc    ....    LDR      r12,[sp,#0x4dc]
        0x00000c70:    e08c030c    ....    ADD      r0,r12,r12,LSL #6
        0x00000c74:    e28d2e2b    +...    ADD      r2,sp,#0x2b0
        0x00000c78:    e0820100    ....    ADD      r0,r2,r0,LSL #2
        0x00000c7c:    e2800004    ....    ADD      r0,r0,#4
        0x00000c80:    e59d34d4    .4..    LDR      r3,[sp,#0x4d4]
        0x00000c84:    e0800283    ....    ADD      r0,r0,r3,LSL #5
        0x00000c88:    e5901008    ....    LDR      r1,[r0,#8]
        0x00000c8c:    e28f0f5d    ]...    ADR      r0,{pc}+0x17c ; 0xe08
        0x00000c90:    eb000706    ....    BL       eLIBs_printf ; 0x28b0
        0x00000c94:    e59dc4dc    ....    LDR      r12,[sp,#0x4dc]
        0x00000c98:    e08c030c    ....    ADD      r0,r12,r12,LSL #6
        0x00000c9c:    e28d2e2b    +...    ADD      r2,sp,#0x2b0
        0x00000ca0:    e0820100    ....    ADD      r0,r2,r0,LSL #2
        0x00000ca4:    e2800004    ....    ADD      r0,r0,#4
        0x00000ca8:    e59d34d4    .4..    LDR      r3,[sp,#0x4d4]
        0x00000cac:    e0800283    ....    ADD      r0,r0,r3,LSL #5
        0x00000cb0:    e5d0101c    ....    LDRB     r1,[r0,#0x1c]
        0x00000cb4:    e28f0e16    ....    ADR      r0,{pc}+0x168 ; 0xe1c
        0x00000cb8:    eb0006fc    ....    BL       eLIBs_printf ; 0x28b0
        0x00000cbc:    e28f00b0    ....    ADR      r0,{pc}+0xb8 ; 0xd74
        0x00000cc0:    eb0006fa    ....    BL       eLIBs_printf ; 0x28b0
        0x00000cc4:    e59d14d4    ....    LDR      r1,[sp,#0x4d4]
        0x00000cc8:    e2810001    ....    ADD      r0,r1,#1
        0x00000ccc:    e58d04d4    ....    STR      r0,[sp,#0x4d4]
        0x00000cd0:    e59d04dc    ....    LDR      r0,[sp,#0x4dc]
        0x00000cd4:    e0800300    ....    ADD      r0,r0,r0,LSL #6
        0x00000cd8:    e28d1e2b    +...    ADD      r1,sp,#0x2b0
        0x00000cdc:    e7910100    ....    LDR      r0,[r1,r0,LSL #2]
        0x00000ce0:    e59d14d4    ....    LDR      r1,[sp,#0x4d4]
        0x00000ce4:    e1500001    ..P.    CMP      r0,r1
        0x00000ce8:    8affffa2    ....    BHI      0xb78 ; 0xb78
        0x00000cec:    e59dc4dc    ....    LDR      r12,[sp,#0x4dc]
        0x00000cf0:    e08c030c    ....    ADD      r0,r12,r12,LSL #6
        0x00000cf4:    e28d2e2b    +...    ADD      r2,sp,#0x2b0
        0x00000cf8:    e7920100    ....    LDR      r0,[r2,r0,LSL #2]
        0x00000cfc:    e2401001    ..@.    SUB      r1,r0,#1
        0x00000d00:    e28f0f4a    J...    ADR      r0,{pc}+0x130 ; 0xe30
        0x00000d04:    eb0006e9    ....    BL       eLIBs_printf ; 0x28b0
        0x00000d08:    e3a00000    ....    MOV      r0,#0
        0x00000d0c:    e58d04d8    ....    STR      r0,[sp,#0x4d8]
        0x00000d10:    e59d04d8    ....    LDR      r0,[sp,#0x4d8]
        0x00000d14:    e58d04d8    ....    STR      r0,[sp,#0x4d8]
        0x00000d18:    e28f00b8    ....    ADR      r0,{pc}+0xc0 ; 0xdd8
        0x00000d1c:    e59d14d8    ....    LDR      r1,[sp,#0x4d8]
        0x00000d20:    eb0006e2    ....    BL       eLIBs_printf ; 0x28b0
        0x00000d24:    e1a00000    ....    MOV      r0,r0
        0x00000d28:    e59d04dc    ....    LDR      r0,[sp,#0x4dc]
        0x00000d2c:    e0800300    ....    ADD      r0,r0,r0,LSL #6
        0x00000d30:    e28d1e2b    +...    ADD      r1,sp,#0x2b0
        0x00000d34:    e7910100    ....    LDR      r0,[r1,r0,LSL #2]
        0x00000d38:    e2400001    ..@.    SUB      r0,r0,#1
        0x00000d3c:    e59d14d8    ....    LDR      r1,[sp,#0x4d8]
        0x00000d40:    e1500001    ..P.    CMP      r0,r1
        0x00000d44:    2a000041    A..*    BCS      0xe50 ; 0xe50
        0x00000d48:    e3a00000    ....    MOV      r0,#0
        0x00000d4c:    ea000040    @...    B        0xe54 ; 0xe54
    $d
        0x00000d50:    20697363    csi     DCD    543781731
        0x00000d54:    76697264    driv    DCD    1986622052
        0x00000d58:    6f207265    er o    DCD    1864397413
        0x00000d5c:    206e6570    pen     DCD    544105840
        0x00000d60:    63637573    succ    DCD    1667462515
        0x00000d64:    21737365    ess!    DCD    561214309
        0x00000d68:    3d706620     fp=    DCD    1030776352
        0x00000d6c:    0a2e7825    %x..    DCD    170817573
        0x00000d70:    00000000    ....    DCD    0
        0x00000d74:    23232323    ####    DCD    589505315
        0x00000d78:    23232323    ####    DCD    589505315
        0x00000d7c:    23232323    ####    DCD    589505315
        0x00000d80:    23232323    ####    DCD    589505315
        0x00000d84:    23232323    ####    DCD    589505315
        0x00000d88:    23232323    ####    DCD    589505315
        0x00000d8c:    00000a23    #...    DCD    2595
        0x00000d90:    20232323    ###     DCD    539173667
        0x00000d94:    65646f6d    mode    DCD    1701080941
        0x00000d98:    20642520     %d     DCD    543434016
        0x00000d9c:    0a232323    ###.    DCD    170074915
        0x00000da0:    00000000    ....    DCD    0
        0x00000da4:    69732023    # si    DCD    1769152547
        0x00000da8:    203a657a    ze:     DCD    540697978
        0x00000dac:    25786425    %dx%    DCD    628646949
        0x00000db0:    00000a64    d...    DCD    2660
        0x00000db4:    72662023    # fr    DCD    1919295523
        0x00000db8:    5f656d61    ame_    DCD    1600482657
        0x00000dbc:    65746172    rate    DCD    1702125938
        0x00000dc0:    6425203a    : %d    DCD    1680154682
        0x00000dc4:    0000000a    ....    DCD    10
        0x00000dc8:    6f632023    # co    DCD    1868767267
        0x00000dcc:    5f726f6c    lor_    DCD    1601335148
        0x00000dd0:    6d726f66    form    DCD    1836216166
        0x00000dd4:    203a7461    at:     DCD    540701793
        0x00000dd8:    000a6425    %d..    DCD    680997
        0x00000ddc:    72662023    # fr    DCD    1919295523
        0x00000de0:    5f656d61    ame_    DCD    1600482657
        0x00000de4:    69726570    peri    DCD    1769104752
        0x00000de8:    203a646f    od:     DCD    540697711
        0x00000dec:    000a6425    %d..    DCD    680997
        0x00000df0:    6f632023    # co    DCD    1868767267
        0x00000df4:    6e6f706d    mpon    DCD    1852797037
        0x00000df8:    5f746e65    ent_    DCD    1601465957
        0x00000dfc:    3a716573    seq:    DCD    980510067
        0x00000e00:    0a642520     %d.    DCD    174335264
        0x00000e04:    00000000    ....    DCD    0
        0x00000e08:    74732023    # st    DCD    1953701923
        0x00000e0c:    5f65726f    ore_    DCD    1600483951
        0x00000e10:    65646f6d    mode    DCD    1701080941
        0x00000e14:    6425203a    : %d    DCD    1680154682
        0x00000e18:    0000000a    ....    DCD    10
        0x00000e1c:    6f632023    # co    DCD    1868767267
        0x00000e20:    5f726f6c    lor_    DCD    1601335148
        0x00000e24:    63617073    spac    DCD    1667330163
        0x00000e28:    25203a65    e: %    DCD    622869093
        0x00000e2c:    00000a64    d...    DCD    2660
        0x00000e30:    61656c70    plea    DCD    1634036848
        0x00000e34:    69206573    se i    DCD    1763730803
        0x00000e38:    7475706e    nput    DCD    1953853550
        0x00000e3c:    69736320     csi    DCD    1769169696
        0x00000e40:    646f6d20     mod    DCD    1685024032
        0x00000e44:    7e302865    e(0~    DCD    2117085285
        0x00000e48:    3a296425    %d):    DCD    975791141
        0x00000e4c:    00000020     ...    DCD    32
    $a
        0x00000e50:    e59d04d8    ....    LDR      r0,[sp,#0x4d8]
        0x00000e54:    e58d04d8    ....    STR      r0,[sp,#0x4d8]
        0x00000e58:    e28f0fe6    ....    ADR      r0,{pc}+0x3a0 ; 0x11f8
        0x00000e5c:    e59d14d8    ....    LDR      r1,[sp,#0x4d8]
        0x00000e60:    eb000692    ....    BL       eLIBs_printf ; 0x28b0
        0x00000e64:    e59dc4dc    ....    LDR      r12,[sp,#0x4dc]
        0x00000e68:    e08c030c    ....    ADD      r0,r12,r12,LSL #6
        0x00000e6c:    e28d1e2b    +...    ADD      r1,sp,#0x2b0
        0x00000e70:    e0810100    ....    ADD      r0,r1,r0,LSL #2
        0x00000e74:    e2800004    ....    ADD      r0,r0,#4
        0x00000e78:    e59d14d8    ....    LDR      r1,[sp,#0x4d8]
        0x00000e7c:    e0803281    .2..    ADD      r3,r0,r1,LSL #5
        0x00000e80:    e3a02000    . ..    MOV      r2,#0
        0x00000e84:    e3a01003    ....    MOV      r1,#3
        0x00000e88:    e51f03fc    ....    LDR      r0,[pc,#-1020] ; [0xa94] = 0x31d0
        0x00000e8c:    e5900000    ....    LDR      r0,[r0,#0]
        0x00000e90:    eb0003c4    ....    BL       eLIBs_fioctrl ; 0x1da8
        0x00000e94:    e28d0e27    '...    ADD      r0,sp,#0x270
        0x00000e98:    e59dc4dc    ....    LDR      r12,[sp,#0x4dc]
        0x00000e9c:    e080328c    .2..    ADD      r3,r0,r12,LSL #5
        0x00000ea0:    e3a02000    . ..    MOV      r2,#0
        0x00000ea4:    e3a01004    ....    MOV      r1,#4
        0x00000ea8:    e51f041c    ....    LDR      r0,[pc,#-1052] ; [0xa94] = 0x31d0
        0x00000eac:    e5900000    ....    LDR      r0,[r0,#0]
        0x00000eb0:    eb0003bc    ....    BL       eLIBs_fioctrl ; 0x1da8
        0x00000eb4:    e28d0e27    '...    ADD      r0,sp,#0x270
        0x00000eb8:    e59dc4dc    ....    LDR      r12,[sp,#0x4dc]
        0x00000ebc:    e080028c    ....    ADD      r0,r0,r12,LSL #5
        0x00000ec0:    e5903014    .0..    LDR      r3,[r0,#0x14]
        0x00000ec4:    e58d3000    .0..    STR      r3,[sp,#0]
        0x00000ec8:    e28d0e27    '...    ADD      r0,sp,#0x270
        0x00000ecc:    e080028c    ....    ADD      r0,r0,r12,LSL #5
        0x00000ed0:    e5903010    .0..    LDR      r3,[r0,#0x10]
        0x00000ed4:    e28d0e27    '...    ADD      r0,sp,#0x270
        0x00000ed8:    e080028c    ....    ADD      r0,r0,r12,LSL #5
        0x00000edc:    e590200c    . ..    LDR      r2,[r0,#0xc]
        0x00000ee0:    e28d0e27    '...    ADD      r0,sp,#0x270
        0x00000ee4:    e7d0128c    ....    LDRB     r1,[r0,r12,LSL #5]
        0x00000ee8:    e28f0e32    2...    ADR      r0,{pc}+0x328 ; 0x1210
        0x00000eec:    eb00066f    o...    BL       eLIBs_printf ; 0x28b0
        0x00000ef0:    e3a00006    ....    MOV      r0,#6
        0x00000ef4:    e58d0058    X...    STR      r0,[sp,#0x58]
        0x00000ef8:    e28d0e27    '...    ADD      r0,sp,#0x270
        0x00000efc:    e59dc4dc    ....    LDR      r12,[sp,#0x4dc]
        0x00000f00:    e080028c    ....    ADD      r0,r0,r12,LSL #5
        0x00000f04:    e590000c    ....    LDR      r0,[r0,#0xc]
        0x00000f08:    e28d1e27    '...    ADD      r1,sp,#0x270
        0x00000f0c:    e081128c    ....    ADD      r1,r1,r12,LSL #5
        0x00000f10:    e5911010    ....    LDR      r1,[r1,#0x10]
        0x00000f14:    e0050091    ....    MUL      r5,r1,r0
        0x00000f18:    e1a01525    %...    LSR      r1,r5,#10
        0x00000f1c:    e28f0fc1    ....    ADR      r0,{pc}+0x30c ; 0x1228
        0x00000f20:    eb000662    b...    BL       eLIBs_printf ; 0x28b0
        0x00000f24:    e3a00000    ....    MOV      r0,#0
        0x00000f28:    e58d04d4    ....    STR      r0,[sp,#0x4d4]
        0x00000f2c:    ea000136    6...    B        0x140c ; 0x140c
        0x00000f30:    e2851c03    ....    ADD      r1,r5,#0x300
        0x00000f34:    e28110ff    ....    ADD      r1,r1,#0xff
        0x00000f38:    e1a00521    !...    LSR      r0,r1,#10
        0x00000f3c:    e3a01000    ....    MOV      r1,#0
        0x00000f40:    ef000200    ....    SVC      #0x200 ; formerly SWI
        0x00000f44:    e3a0100b    ....    MOV      r1,#0xb
        0x00000f48:    e59d34d4    .4..    LDR      r3,[sp,#0x4d4]
        0x00000f4c:    e0010193    ....    MUL      r1,r3,r1
        0x00000f50:    e28d2060    ` ..    ADD      r2,sp,#0x60
        0x00000f54:    e0821181    ....    ADD      r1,r2,r1,LSL #3
        0x00000f58:    e5810028    (...    STR      r0,[r1,#0x28]
        0x00000f5c:    e3500000    ..P.    CMP      r0,#0
        0x00000f60:    1a000006    ....    BNE      0xf80 ; 0xf80
        0x00000f64:    e24f2d12    .-O.    ADR      r2,{pc}-0x478 ; 0xaec
        0x00000f68:    e59f12d0    ....    LDR      r1,[pc,#720] ; [0x1240] = 0x139
        0x00000f6c:    e59f02d0    ....    LDR      r0,[pc,#720] ; [0x1244] = 0xaf8
        0x00000f70:    eb00064e    N...    BL       eLIBs_printf ; 0x28b0
        0x00000f74:    e28f0fb3    ....    ADR      r0,{pc}+0x2d4 ; 0x1248
        0x00000f78:    eb00064c    L...    BL       eLIBs_printf ; 0x28b0
        0x00000f7c:    ef000f05    ....    SVC      #0xf05 ; formerly SWI
        0x00000f80:    e3a0100b    ....    MOV      r1,#0xb
        0x00000f84:    e59d34d4    .4..    LDR      r3,[sp,#0x4d4]
        0x00000f88:    e0010193    ....    MUL      r1,r3,r1
        0x00000f8c:    e28d2060    ` ..    ADD      r2,sp,#0x60
        0x00000f90:    e0821181    ....    ADD      r1,r2,r1,LSL #3
        0x00000f94:    e1a02005    . ..    MOV      r2,r5
        0x00000f98:    e5910028    (...    LDR      r0,[r1,#0x28]
        0x00000f9c:    e3a01000    ....    MOV      r1,#0
        0x00000fa0:    eb0006b8    ....    BL       eLIBs_memset ; 0x2a88
        0x00000fa4:    e3a0100b    ....    MOV      r1,#0xb
        0x00000fa8:    e59d34d4    .4..    LDR      r3,[sp,#0x4d4]
        0x00000fac:    e0010193    ....    MUL      r1,r3,r1
        0x00000fb0:    e28d2060    ` ..    ADD      r2,sp,#0x60
        0x00000fb4:    e0821181    ....    ADD      r1,r2,r1,LSL #3
        0x00000fb8:    e5910028    (...    LDR      r0,[r1,#0x28]
        0x00000fbc:    e1a01005    ....    MOV      r1,r5
        0x00000fc0:    eb0006c0    ....    BL       eLIBs_CleanFlushDCacheRegion ; 0x2ac8
        0x00000fc4:    e2851c03    ....    ADD      r1,r5,#0x300
        0x00000fc8:    e28110ff    ....    ADD      r1,r1,#0xff
        0x00000fcc:    e1a00521    !...    LSR      r0,r1,#10
        0x00000fd0:    e3a01000    ....    MOV      r1,#0
        0x00000fd4:    ef000200    ....    SVC      #0x200 ; formerly SWI
        0x00000fd8:    e3a0100b    ....    MOV      r1,#0xb
        0x00000fdc:    e59d34d4    .4..    LDR      r3,[sp,#0x4d4]
        0x00000fe0:    e0010193    ....    MUL      r1,r3,r1
        0x00000fe4:    e28d2060    ` ..    ADD      r2,sp,#0x60
        0x00000fe8:    e0821181    ....    ADD      r1,r2,r1,LSL #3
        0x00000fec:    e581002c    ,...    STR      r0,[r1,#0x2c]
        0x00000ff0:    e3500000    ..P.    CMP      r0,#0
        0x00000ff4:    1a000006    ....    BNE      0x1014 ; 0x1014
        0x00000ff8:    e59f225c    \"..    LDR      r2,[pc,#604] ; [0x125c] = 0xaec
        0x00000ffc:    e59f125c    \...    LDR      r1,[pc,#604] ; [0x1260] = 0x141
        0x00001000:    e24f0e51    Q.O.    ADR      r0,{pc}-0x508 ; 0xaf8
        0x00001004:    eb000629    )...    BL       eLIBs_printf ; 0x28b0
        0x00001008:    e28f0f8e    ....    ADR      r0,{pc}+0x240 ; 0x1248
        0x0000100c:    eb000627    '...    BL       eLIBs_printf ; 0x28b0
        0x00001010:    ef000f05    ....    SVC      #0xf05 ; formerly SWI
        0x00001014:    e3a0100b    ....    MOV      r1,#0xb
        0x00001018:    e59d34d4    .4..    LDR      r3,[sp,#0x4d4]
        0x0000101c:    e0010193    ....    MUL      r1,r3,r1
        0x00001020:    e28d2060    ` ..    ADD      r2,sp,#0x60
        0x00001024:    e0821181    ....    ADD      r1,r2,r1,LSL #3
        0x00001028:    e1a02005    . ..    MOV      r2,r5
        0x0000102c:    e591002c    ,...    LDR      r0,[r1,#0x2c]
        0x00001030:    e3a01000    ....    MOV      r1,#0
        0x00001034:    eb000693    ....    BL       eLIBs_memset ; 0x2a88
        0x00001038:    e3a0100b    ....    MOV      r1,#0xb
        0x0000103c:    e59d34d4    .4..    LDR      r3,[sp,#0x4d4]
        0x00001040:    e0010193    ....    MUL      r1,r3,r1
        0x00001044:    e28d2060    ` ..    ADD      r2,sp,#0x60
        0x00001048:    e0821181    ....    ADD      r1,r2,r1,LSL #3
        0x0000104c:    e591002c    ,...    LDR      r0,[r1,#0x2c]
        0x00001050:    e1a01005    ....    MOV      r1,r5
        0x00001054:    eb00069b    ....    BL       eLIBs_CleanFlushDCacheRegion ; 0x2ac8
        0x00001058:    e2851c03    ....    ADD      r1,r5,#0x300
        0x0000105c:    e28110ff    ....    ADD      r1,r1,#0xff
        0x00001060:    e1a00521    !...    LSR      r0,r1,#10
        0x00001064:    e3a01000    ....    MOV      r1,#0
        0x00001068:    ef000200    ....    SVC      #0x200 ; formerly SWI
        0x0000106c:    e3a0100b    ....    MOV      r1,#0xb
        0x00001070:    e59d34d4    .4..    LDR      r3,[sp,#0x4d4]
        0x00001074:    e0010193    ....    MUL      r1,r3,r1
        0x00001078:    e28d2060    ` ..    ADD      r2,sp,#0x60
        0x0000107c:    e0821181    ....    ADD      r1,r2,r1,LSL #3
        0x00001080:    e5810030    0...    STR      r0,[r1,#0x30]
        0x00001084:    e3500000    ..P.    CMP      r0,#0
        0x00001088:    1a000006    ....    BNE      0x10a8 ; 0x10a8
        0x0000108c:    e59f21c8    .!..    LDR      r2,[pc,#456] ; [0x125c] = 0xaec
        0x00001090:    e59f11cc    ....    LDR      r1,[pc,#460] ; [0x1264] = 0x149
        0x00001094:    e59f01a8    ....    LDR      r0,[pc,#424] ; [0x1244] = 0xaf8
        0x00001098:    eb000604    ....    BL       eLIBs_printf ; 0x28b0
        0x0000109c:    e28f0f69    i...    ADR      r0,{pc}+0x1ac ; 0x1248
        0x000010a0:    eb000602    ....    BL       eLIBs_printf ; 0x28b0
        0x000010a4:    ef000f05    ....    SVC      #0xf05 ; formerly SWI
        0x000010a8:    e3a0100b    ....    MOV      r1,#0xb
        0x000010ac:    e59d34d4    .4..    LDR      r3,[sp,#0x4d4]
        0x000010b0:    e0010193    ....    MUL      r1,r3,r1
        0x000010b4:    e28d2060    ` ..    ADD      r2,sp,#0x60
        0x000010b8:    e0821181    ....    ADD      r1,r2,r1,LSL #3
        0x000010bc:    e1a02005    . ..    MOV      r2,r5
        0x000010c0:    e5910030    0...    LDR      r0,[r1,#0x30]
        0x000010c4:    e3a01000    ....    MOV      r1,#0
        0x000010c8:    eb00066e    n...    BL       eLIBs_memset ; 0x2a88
        0x000010cc:    e3a0100b    ....    MOV      r1,#0xb
        0x000010d0:    e59d34d4    .4..    LDR      r3,[sp,#0x4d4]
        0x000010d4:    e0010193    ....    MUL      r1,r3,r1
        0x000010d8:    e28d2060    ` ..    ADD      r2,sp,#0x60
        0x000010dc:    e0821181    ....    ADD      r1,r2,r1,LSL #3
        0x000010e0:    e5910030    0...    LDR      r0,[r1,#0x30]
        0x000010e4:    e1a01005    ....    MOV      r1,r5
        0x000010e8:    eb000676    v...    BL       eLIBs_CleanFlushDCacheRegion ; 0x2ac8
        0x000010ec:    e59d04d4    ....    LDR      r0,[sp,#0x4d4]
        0x000010f0:    ebfffdde    ....    BL       generate_frame_id ; 0x870
        0x000010f4:    e3a0100b    ....    MOV      r1,#0xb
        0x000010f8:    e59d34d4    .4..    LDR      r3,[sp,#0x4d4]
        0x000010fc:    e0010193    ....    MUL      r1,r3,r1
        0x00001100:    e28d2060    ` ..    ADD      r2,sp,#0x60
        0x00001104:    e7820181    ....    STR      r0,[r2,r1,LSL #3]
        0x00001108:    e59f214c    L!..    LDR      r2,[pc,#332] ; [0x125c] = 0xaec
        0x0000110c:    e3a01e15    ....    MOV      r1,#0x150
        0x00001110:    e28f0e15    ....    ADR      r0,{pc}+0x158 ; 0x1268
        0x00001114:    eb0005e5    ....    BL       eLIBs_printf ; 0x28b0
        0x00001118:    e3a0000b    ....    MOV      r0,#0xb
        0x0000111c:    e59d14d4    ....    LDR      r1,[sp,#0x4d4]
        0x00001120:    e0000091    ....    MUL      r0,r1,r0
        0x00001124:    e28d1060    `...    ADD      r1,sp,#0x60
        0x00001128:    e7912180    .!..    LDR      r2,[r1,r0,LSL #3]
        0x0000112c:    e28f0f51    Q...    ADR      r0,{pc}+0x14c ; 0x1278
        0x00001130:    e59d14d4    ....    LDR      r1,[sp,#0x4d4]
        0x00001134:    eb0005dd    ....    BL       eLIBs_printf ; 0x28b0
        0x00001138:    e3a00000    ....    MOV      r0,#0
        0x0000113c:    e3a0100b    ....    MOV      r1,#0xb
        0x00001140:    e59d34d4    .4..    LDR      r3,[sp,#0x4d4]
        0x00001144:    e0010193    ....    MUL      r1,r3,r1
        0x00001148:    e28d2060    ` ..    ADD      r2,sp,#0x60
        0x0000114c:    e0821181    ....    ADD      r1,r2,r1,LSL #3
        0x00001150:    e5c10004    ....    STRB     r0,[r1,#4]
        0x00001154:    e3a0100b    ....    MOV      r1,#0xb
        0x00001158:    e59d34d4    .4..    LDR      r3,[sp,#0x4d4]
        0x0000115c:    e0010193    ....    MUL      r1,r3,r1
        0x00001160:    e28d2060    ` ..    ADD      r2,sp,#0x60
        0x00001164:    e0821181    ....    ADD      r1,r2,r1,LSL #3
        0x00001168:    e5c10005    ....    STRB     r0,[r1,#5]
        0x0000116c:    e3a0100b    ....    MOV      r1,#0xb
        0x00001170:    e59d34d4    .4..    LDR      r3,[sp,#0x4d4]
        0x00001174:    e0010193    ....    MUL      r1,r3,r1
        0x00001178:    e28d2060    ` ..    ADD      r2,sp,#0x60
        0x0000117c:    e0821181    ....    ADD      r1,r2,r1,LSL #3
        0x00001180:    e1c100b6    ....    STRH     r0,[r1,#6]
        0x00001184:    e28d0e27    '...    ADD      r0,sp,#0x270
        0x00001188:    e59dc4dc    ....    LDR      r12,[sp,#0x4dc]
        0x0000118c:    e7d0028c    ....    LDRB     r0,[r0,r12,LSL #5]
        0x00001190:    e3a0100b    ....    MOV      r1,#0xb
        0x00001194:    e59d34d4    .4..    LDR      r3,[sp,#0x4d4]
        0x00001198:    e0010193    ....    MUL      r1,r3,r1
        0x0000119c:    e28d2060    ` ..    ADD      r2,sp,#0x60
        0x000011a0:    e0821181    ....    ADD      r1,r2,r1,LSL #3
        0x000011a4:    e1c103b4    ....    STRH     r0,[r1,#0x34]
        0x000011a8:    e28d0e27    '...    ADD      r0,sp,#0x270
        0x000011ac:    e59dc4dc    ....    LDR      r12,[sp,#0x4dc]
        0x000011b0:    e080028c    ....    ADD      r0,r0,r12,LSL #5
        0x000011b4:    e590000c    ....    LDR      r0,[r0,#0xc]
        0x000011b8:    e3a0100b    ....    MOV      r1,#0xb
        0x000011bc:    e59d34d4    .4..    LDR      r3,[sp,#0x4d4]
        0x000011c0:    e0010193    ....    MUL      r1,r3,r1
        0x000011c4:    e28d2060    ` ..    ADD      r2,sp,#0x60
        0x000011c8:    e0821181    ....    ADD      r1,r2,r1,LSL #3
        0x000011cc:    e5810020     ...    STR      r0,[r1,#0x20]
        0x000011d0:    e3a0100b    ....    MOV      r1,#0xb
        0x000011d4:    e59d34d4    .4..    LDR      r3,[sp,#0x4d4]
        0x000011d8:    e0010193    ....    MUL      r1,r3,r1
        0x000011dc:    e28d2060    ` ..    ADD      r2,sp,#0x60
        0x000011e0:    e0821181    ....    ADD      r1,r2,r1,LSL #3
        0x000011e4:    e5810010    ....    STR      r0,[r1,#0x10]
        0x000011e8:    e28d0e27    '...    ADD      r0,sp,#0x270
        0x000011ec:    e59dc4dc    ....    LDR      r12,[sp,#0x4dc]
        0x000011f0:    e080028c    ....    ADD      r0,r0,r12,LSL #5
        0x000011f4:    ea000026    &...    B        0x1294 ; 0x1294
    $d
        0x000011f8:    656c6573    sele    DCD    1701602675
        0x000011fc:    63207463    ct c    DCD    1663071331
        0x00001200:    6d206973    si m    DCD    1830840691
        0x00001204:    2065646f    ode     DCD    543515759
        0x00001208:    5d64255b    [%d]    DCD    1566844251
        0x0000120c:    0000000a    ....    DCD    10
        0x00001210:    6f6c6f63    colo    DCD    1869377379
        0x00001214:    6d665f72    r_fm    DCD    1835425650
        0x00001218:    64253d74    t=%d    DCD    1680162164
        0x0000121c:    7864253a    :%dx    DCD    2019829050
        0x00001220:    25406425    %d@%    DCD    624976933
        0x00001224:    00000a64    d...    DCD    2660
        0x00001228:    5f697363    csi_    DCD    1600746339
        0x0000122c:    5f637273    src_    DCD    1600352883
        0x00001230:    657a6973    size    DCD    1702521203
        0x00001234:    6b64253d    =%dk    DCD    1801725245
        0x00001238:    65747942    Byte    DCD    1702132034
        0x0000123c:    0000000a    ....    DCD    10
        0x00001240:    00000139    9...    DCD    313
        0x00001244:    00000af8    ....    DCD    2808
        0x00001248:    6c696146    Fail    DCD    1818845510
        0x0000124c:    74206465    ed t    DCD    1948279909
        0x00001250:    616d206f    o ma    DCD    1634541679
        0x00001254:    636f6c6c    lloc    DCD    1668246636
        0x00001258:    00000a21    !...    DCD    2593
        0x0000125c:    00000aec    ....    DCD    2796
        0x00001260:    00000141    A...    DCD    321
        0x00001264:    00000149    I...    DCD    329
    |L1.2644|
        0x00001268:    3a47534d    MSG:    DCD    977752909
        0x0000126c:    2864254c    L%d(    DCD    677651788
        0x00001270:    3a297325    %s):    DCD    975794981
        0x00001274:    00000000    ....    DCD    0
        0x00001278:    75716572    requ    DCD    1970365810
        0x0000127c:    20747365    est     DCD    544502629
        0x00001280:    6d617266    fram    DCD    1835102822
        0x00001284:    64692065    e id    DCD    1684611173
        0x00001288:    20642520     %d     DCD    543434016
        0x0000128c:    7825203d    = %x    DCD    2015699005
        0x00001290:    0000000a    ....    DCD    10
    $a
        0x00001294:    e5900010    ....    LDR      r0,[r0,#0x10]
        0x00001298:    e3a0100b    ....    MOV      r1,#0xb
        0x0000129c:    e59d34d4    .4..    LDR      r3,[sp,#0x4d4]
        0x000012a0:    e0010193    ....    MUL      r1,r3,r1
        0x000012a4:    e28d2060    ` ..    ADD      r2,sp,#0x60
        0x000012a8:    e0821181    ....    ADD      r1,r2,r1,LSL #3
        0x000012ac:    e5810024    $...    STR      r0,[r1,#0x24]
        0x000012b0:    e3a0100b    ....    MOV      r1,#0xb
        0x000012b4:    e59d34d4    .4..    LDR      r3,[sp,#0x4d4]
        0x000012b8:    e0010193    ....    MUL      r1,r3,r1
        0x000012bc:    e28d2060    ` ..    ADD      r2,sp,#0x60
        0x000012c0:    e0821181    ....    ADD      r1,r2,r1,LSL #3
        0x000012c4:    e5810014    ....    STR      r0,[r1,#0x14]
        0x000012c8:    e28d0e27    '...    ADD      r0,sp,#0x270
        0x000012cc:    e59dc4dc    ....    LDR      r12,[sp,#0x4dc]
        0x000012d0:    e080028c    ....    ADD      r0,r0,r12,LSL #5
        0x000012d4:    e5900014    ....    LDR      r0,[r0,#0x14]
        0x000012d8:    e3a0100b    ....    MOV      r1,#0xb
        0x000012dc:    e59d34d4    .4..    LDR      r3,[sp,#0x4d4]
        0x000012e0:    e0010193    ....    MUL      r1,r3,r1
        0x000012e4:    e28d2060    ` ..    ADD      r2,sp,#0x60
        0x000012e8:    e0821181    ....    ADD      r1,r2,r1,LSL #3
        0x000012ec:    e1c104b0    ....    STRH     r0,[r1,#0x40]
        0x000012f0:    e3a0000b    ....    MOV      r0,#0xb
        0x000012f4:    e59d14d4    ....    LDR      r1,[sp,#0x4d4]
        0x000012f8:    e0000091    ....    MUL      r0,r1,r0
        0x000012fc:    e28d1060    `...    ADD      r1,sp,#0x60
        0x00001300:    e0810180    ....    ADD      r0,r1,r0,LSL #3
        0x00001304:    e28f1fb6    ....    ADR      r1,{pc}+0x2e0 ; 0x15e4
        0x00001308:    e8910006    ....    LDM      r1,{r1,r2}
        0x0000130c:    e5801048    H...    STR      r1,[r0,#0x48]
        0x00001310:    e580204c    L ..    STR      r2,[r0,#0x4c]
        0x00001314:    e3a00001    ....    MOV      r0,#1
        0x00001318:    e3a0100b    ....    MOV      r1,#0xb
        0x0000131c:    e59d34d4    .4..    LDR      r3,[sp,#0x4d4]
        0x00001320:    e0010193    ....    MUL      r1,r3,r1
        0x00001324:    e28d2060    ` ..    ADD      r2,sp,#0x60
        0x00001328:    e0821181    ....    ADD      r1,r2,r1,LSL #3
        0x0000132c:    e5810050    P...    STR      r0,[r1,#0x50]
        0x00001330:    e28d0e27    '...    ADD      r0,sp,#0x270
        0x00001334:    e59dc4dc    ....    LDR      r12,[sp,#0x4dc]
        0x00001338:    e080028c    ....    ADD      r0,r0,r12,LSL #5
        0x0000133c:    e5900004    ....    LDR      r0,[r0,#4]
        0x00001340:    e3a0100b    ....    MOV      r1,#0xb
        0x00001344:    e59d34d4    .4..    LDR      r3,[sp,#0x4d4]
        0x00001348:    e0010193    ....    MUL      r1,r3,r1
        0x0000134c:    e28d2060    ` ..    ADD      r2,sp,#0x60
        0x00001350:    e0821181    ....    ADD      r1,r2,r1,LSL #3
        0x00001354:    e5810038    8...    STR      r0,[r1,#0x38]
        0x00001358:    e28d0e27    '...    ADD      r0,sp,#0x270
        0x0000135c:    e59dc4dc    ....    LDR      r12,[sp,#0x4dc]
        0x00001360:    e080028c    ....    ADD      r0,r0,r12,LSL #5
        0x00001364:    e5900008    ....    LDR      r0,[r0,#8]
        0x00001368:    e3a0100b    ....    MOV      r1,#0xb
        0x0000136c:    e59d34d4    .4..    LDR      r3,[sp,#0x4d4]
        0x00001370:    e0010193    ....    MUL      r1,r3,r1
        0x00001374:    e28d2060    ` ..    ADD      r2,sp,#0x60
        0x00001378:    e0821181    ....    ADD      r1,r2,r1,LSL #3
        0x0000137c:    e581003c    <...    STR      r0,[r1,#0x3c]
        0x00001380:    e51f212c    ,!..    LDR      r2,[pc,#-300] ; [0x125c] = 0xaec
        0x00001384:    e3a01f57    W...    MOV      r1,#0x15c
        0x00001388:    e24f0f4a    J.O.    ADR      r0,{pc}-0x120 ; 0x1268
        0x0000138c:    eb000547    G...    BL       eLIBs_printf ; 0x28b0
        0x00001390:    e3a0000b    ....    MOV      r0,#0xb
        0x00001394:    e59d14d4    ....    LDR      r1,[sp,#0x4d4]
        0x00001398:    e0000091    ....    MUL      r0,r1,r0
        0x0000139c:    e28d1060    `...    ADD      r1,sp,#0x60
        0x000013a0:    e0810180    ....    ADD      r0,r1,r0,LSL #3
        0x000013a4:    e5903030    00..    LDR      r3,[r0,#0x30]
        0x000013a8:    e58d3000    .0..    STR      r3,[sp,#0]
        0x000013ac:    e3a0000b    ....    MOV      r0,#0xb
        0x000013b0:    e59d14d4    ....    LDR      r1,[sp,#0x4d4]
        0x000013b4:    e0000091    ....    MUL      r0,r1,r0
        0x000013b8:    e28d1060    `...    ADD      r1,sp,#0x60
        0x000013bc:    e0810180    ....    ADD      r0,r1,r0,LSL #3
        0x000013c0:    e590302c    ,0..    LDR      r3,[r0,#0x2c]
        0x000013c4:    e3a0000b    ....    MOV      r0,#0xb
        0x000013c8:    e59d14d4    ....    LDR      r1,[sp,#0x4d4]
        0x000013cc:    e0000091    ....    MUL      r0,r1,r0
        0x000013d0:    e28d1060    `...    ADD      r1,sp,#0x60
        0x000013d4:    e0810180    ....    ADD      r0,r1,r0,LSL #3
        0x000013d8:    e3a01000    ....    MOV      r1,#0
        0x000013dc:    e5902028    ( ..    LDR      r2,[r0,#0x28]
        0x000013e0:    e28f0f81    ....    ADR      r0,{pc}+0x20c ; 0x15ec
        0x000013e4:    eb000531    1...    BL       eLIBs_printf ; 0x28b0
        0x000013e8:    e28d3058    X0..    ADD      r3,sp,#0x58
        0x000013ec:    e3a02000    . ..    MOV      r2,#0
        0x000013f0:    e3a0100e    ....    MOV      r1,#0xe
        0x000013f4:    e51f0968    h...    LDR      r0,[pc,#-2408] ; [0xa94] = 0x31d0
        0x000013f8:    e5900000    ....    LDR      r0,[r0,#0]
        0x000013fc:    eb000269    i...    BL       eLIBs_fioctrl ; 0x1da8
        0x00001400:    e59d14d4    ....    LDR      r1,[sp,#0x4d4]
        0x00001404:    e2810001    ....    ADD      r0,r1,#1
        0x00001408:    e58d04d4    ....    STR      r0,[sp,#0x4d4]
        0x0000140c:    e59d0058    X...    LDR      r0,[sp,#0x58]
        0x00001410:    e59d14d4    ....    LDR      r1,[sp,#0x4d4]
        0x00001414:    e1500001    ..P.    CMP      r0,r1
        0x00001418:    8afffec4    ....    BHI      0xf30 ; 0xf30
        0x0000141c:    e28d1e27    '...    ADD      r1,sp,#0x270
        0x00001420:    e59dc4dc    ....    LDR      r12,[sp,#0x4dc]
        0x00001424:    e081128c    ....    ADD      r1,r1,r12,LSL #5
        0x00001428:    e5910018    ....    LDR      r0,[r1,#0x18]
        0x0000142c:    e3a01ffa    ....    MOV      r1,#0x3e8
        0x00001430:    eb0006d9    ....    BL       __aeabi_uidiv ; 0x2f9c
        0x00001434:    e1a07000    .p..    MOV      r7,r0
        0x00001438:    e28d0e27    '...    ADD      r0,sp,#0x270
        0x0000143c:    e59dc4dc    ....    LDR      r12,[sp,#0x4dc]
        0x00001440:    e7d0028c    ....    LDRB     r0,[r0,r12,LSL #5]
        0x00001444:    e2400010    ..@.    SUB      r0,r0,#0x10
        0x00001448:    e3500005    ..P.    CMP      r0,#5
        0x0000144c:    908ff100    ....    ADDLS    pc,pc,r0,LSL #2
        0x00001450:    ea000028    (...    B        0x14f8 ; 0x14f8
        0x00001454:    ea000012    ....    B        0x14a4 ; 0x14a4
        0x00001458:    ea000003    ....    B        0x146c ; 0x146c
        0x0000145c:    ea000009    ....    B        0x1488 ; 0x1488
        0x00001460:    ea000024    $...    B        0x14f8 ; 0x14f8
        0x00001464:    ea000015    ....    B        0x14c0 ; 0x14c0
        0x00001468:    ea00001b    ....    B        0x14dc ; 0x14dc
        0x0000146c:    e1a00000    ....    MOV      r0,r0
        0x00001470:    e3a0000c    ....    MOV      r0,#0xc
        0x00001474:    e59f1184    ....    LDR      r1,[pc,#388] ; [0x1600] = 0x3206
        0x00001478:    e5c10000    ....    STRB     r0,[r1,#0]
        0x0000147c:    e28f0d06    ....    ADR      r0,{pc}+0x188 ; 0x1604
        0x00001480:    eb00050a    ....    BL       eLIBs_printf ; 0x28b0
        0x00001484:    ea00001b    ....    B        0x14f8 ; 0x14f8
        0x00001488:    e1a00000    ....    MOV      r0,r0
        0x0000148c:    e3a0000d    ....    MOV      r0,#0xd
        0x00001490:    e59f1168    h...    LDR      r1,[pc,#360] ; [0x1600] = 0x3206
        0x00001494:    e5c10000    ....    STRB     r0,[r1,#0]
        0x00001498:    e28f0f5e    ^...    ADR      r0,{pc}+0x180 ; 0x1618
        0x0000149c:    eb000503    ....    BL       eLIBs_printf ; 0x28b0
        0x000014a0:    ea000014    ....    B        0x14f8 ; 0x14f8
        0x000014a4:    e1a00000    ....    MOV      r0,r0
        0x000014a8:    e3a0000b    ....    MOV      r0,#0xb
        0x000014ac:    e59f114c    L...    LDR      r1,[pc,#332] ; [0x1600] = 0x3206
        0x000014b0:    e5c10000    ....    STRB     r0,[r1,#0]
        0x000014b4:    e28f0e17    ....    ADR      r0,{pc}+0x178 ; 0x162c
        0x000014b8:    eb0004fc    ....    BL       eLIBs_printf ; 0x28b0
        0x000014bc:    ea00000d    ....    B        0x14f8 ; 0x14f8
        0x000014c0:    e1a00000    ....    MOV      r0,r0
        0x000014c4:    e3a0000f    ....    MOV      r0,#0xf
        0x000014c8:    e59f1130    0...    LDR      r1,[pc,#304] ; [0x1600] = 0x3206
        0x000014cc:    e5c10000    ....    STRB     r0,[r1,#0]
        0x000014d0:    e28f0f5a    Z...    ADR      r0,{pc}+0x170 ; 0x1640
        0x000014d4:    eb0004f5    ....    BL       eLIBs_printf ; 0x28b0
        0x000014d8:    ea000006    ....    B        0x14f8 ; 0x14f8
        0x000014dc:    e1a00000    ....    MOV      r0,r0
        0x000014e0:    e3a0000c    ....    MOV      r0,#0xc
        0x000014e4:    e59f1114    ....    LDR      r1,[pc,#276] ; [0x1600] = 0x3206
        0x000014e8:    e5c10000    ....    STRB     r0,[r1,#0]
        0x000014ec:    e28f0e16    ....    ADR      r0,{pc}+0x168 ; 0x1654
        0x000014f0:    eb0004ee    ....    BL       eLIBs_printf ; 0x28b0
        0x000014f4:    e1a00000    ....    MOV      r0,r0
        0x000014f8:    e1a00000    ....    MOV      r0,r0
        0x000014fc:    e28d0e27    '...    ADD      r0,sp,#0x270
        0x00001500:    e59dc4dc    ....    LDR      r12,[sp,#0x4dc]
        0x00001504:    e080028c    ....    ADD      r0,r0,r12,LSL #5
        0x00001508:    e5900004    ....    LDR      r0,[r0,#4]
        0x0000150c:    e3500010    ..P.    CMP      r0,#0x10
        0x00001510:    0a000073    s...    BEQ      0x16e4 ; 0x16e4
        0x00001514:    ca000008    ....    BGT      0x153c ; 0x153c
        0x00001518:    e3500000    ..P.    CMP      r0,#0
        0x0000151c:    0a00000d    ....    BEQ      0x1558 ; 0x1558
        0x00001520:    e3500001    ..P.    CMP      r0,#1
        0x00001524:    0a000012    ....    BEQ      0x1574 ; 0x1574
        0x00001528:    e3500002    ..P.    CMP      r0,#2
        0x0000152c:    0a000017    ....    BEQ      0x1590 ; 0x1590
        0x00001530:    e3500003    ..P.    CMP      r0,#3
        0x00001534:    1a000078    x...    BNE      0x171c ; 0x171c
        0x00001538:    ea00001b    ....    B        0x15ac ; 0x15ac
        0x0000153c:    e3500011    ..P.    CMP      r0,#0x11
        0x00001540:    0a00006e    n...    BEQ      0x1700 ; 0x1700
        0x00001544:    e3500020     .P.    CMP      r0,#0x20
        0x00001548:    0a00001e    ....    BEQ      0x15c8 ; 0x15c8
        0x0000154c:    e3500021    !.P.    CMP      r0,#0x21
        0x00001550:    1a000071    q...    BNE      0x171c ; 0x171c
        0x00001554:    ea00005b    [...    B        0x16c8 ; 0x16c8
        0x00001558:    e1a00000    ....    MOV      r0,r0
        0x0000155c:    e3a00003    ....    MOV      r0,#3
        0x00001560:    e59f110c    ....    LDR      r1,[pc,#268] ; [0x1674] = 0x3205
        0x00001564:    e5c10000    ....    STRB     r0,[r1,#0]
        0x00001568:    e28f0f42    B...    ADR      r0,{pc}+0x110 ; 0x1678
        0x0000156c:    eb0004cf    ....    BL       eLIBs_printf ; 0x28b0
        0x00001570:    ea000069    i...    B        0x171c ; 0x171c
        0x00001574:    e1a00000    ....    MOV      r0,r0
        0x00001578:    e3a00004    ....    MOV      r0,#4
        0x0000157c:    e59f10f0    ....    LDR      r1,[pc,#240] ; [0x1674] = 0x3205
        0x00001580:    e5c10000    ....    STRB     r0,[r1,#0]
        0x00001584:    e28f00fc    ....    ADR      r0,{pc}+0x104 ; 0x1688
        0x00001588:    eb0004c8    ....    BL       eLIBs_printf ; 0x28b0
        0x0000158c:    ea000062    b...    B        0x171c ; 0x171c
        0x00001590:    e1a00000    ....    MOV      r0,r0
        0x00001594:    e3a00005    ....    MOV      r0,#5
        0x00001598:    e59f10d4    ....    LDR      r1,[pc,#212] ; [0x1674] = 0x3205
        0x0000159c:    e5c10000    ....    STRB     r0,[r1,#0]
        0x000015a0:    e28f00f0    ....    ADR      r0,{pc}+0xf8 ; 0x1698
        0x000015a4:    eb0004c1    ....    BL       eLIBs_printf ; 0x28b0
        0x000015a8:    ea00005b    [...    B        0x171c ; 0x171c
        0x000015ac:    e1a00000    ....    MOV      r0,r0
        0x000015b0:    e3a00006    ....    MOV      r0,#6
        0x000015b4:    e59f10b8    ....    LDR      r1,[pc,#184] ; [0x1674] = 0x3205
        0x000015b8:    e5c10000    ....    STRB     r0,[r1,#0]
        0x000015bc:    e28f00e4    ....    ADR      r0,{pc}+0xec ; 0x16a8
        0x000015c0:    eb0004ba    ....    BL       eLIBs_printf ; 0x28b0
        0x000015c4:    ea000054    T...    B        0x171c ; 0x171c
        0x000015c8:    e1a00000    ....    MOV      r0,r0
        0x000015cc:    e3a00009    ....    MOV      r0,#9
        0x000015d0:    e59f109c    ....    LDR      r1,[pc,#156] ; [0x1674] = 0x3205
        0x000015d4:    e5c10000    ....    STRB     r0,[r1,#0]
        0x000015d8:    e28f00d8    ....    ADR      r0,{pc}+0xe0 ; 0x16b8
        0x000015dc:    eb0004b3    ....    BL       eLIBs_printf ; 0x28b0
        0x000015e0:    ea00004d    M...    B        0x171c ; 0x171c
    $d
        0x000015e4:    00000000    ....    DCD    0
        0x000015e8:    00000000    ....    DCD    0
        0x000015ec:    66667562    buff    DCD    1717990754
        0x000015f0:    64257265    er%d    DCD    1680175717
        0x000015f4:    2c78253a    :%x,    DCD    746071354
        0x000015f8:    252c7825    %x,%    DCD    623671333
        0x000015fc:    00000a78    x...    DCD    2680
        0x00001600:    00003206    .2..    DCD    12806
        0x00001604:    50534944    DISP    DCD    1347635524
        0x00001608:    524f465f    _FOR    DCD    1380927071
        0x0000160c:    5f54414d    MAT_    DCD    1599357261
        0x00001610:    34565559    YUV4    DCD    878073177
        0x00001614:    000a3232    22..    DCD    668210
        0x00001618:    50534944    DISP    DCD    1347635524
        0x0000161c:    524f465f    _FOR    DCD    1380927071
        0x00001620:    5f54414d    MAT_    DCD    1599357261
        0x00001624:    34565559    YUV4    DCD    878073177
        0x00001628:    000a3032    20..    DCD    667698
        0x0000162c:    50534944    DISP    DCD    1347635524
        0x00001630:    524f465f    _FOR    DCD    1380927071
        0x00001634:    5f54414d    MAT_    DCD    1599357261
        0x00001638:    34565559    YUV4    DCD    878073177
        0x0000163c:    000a3434    44..    DCD    668724
        0x00001640:    50534944    DISP    DCD    1347635524
        0x00001644:    524f465f    _FOR    DCD    1380927071
        0x00001648:    5f54414d    MAT_    DCD    1599357261
        0x0000164c:    52495343    CSIR    DCD    1380537155
        0x00001650:    000a4247    GB..    DCD    672327
        0x00001654:    50534944    DISP    DCD    1347635524
        0x00001658:    524f465f    _FOR    DCD    1380927071
        0x0000165c:    5f54414d    MAT_    DCD    1599357261
        0x00001660:    48544f28    (OTH    DCD    1213484840
        0x00001664:    4d465245    ERFM    DCD    1296454213
        0x00001668:    55592954    T)YU    DCD    1431906644
        0x0000166c:    32323456    V422    DCD    842150998
        0x00001670:    0000000a    ....    DCD    10
        0x00001674:    00003205    .2..    DCD    12805
        0x00001678:    50534944    DISP    DCD    1347635524
        0x0000167c:    5145535f    _SEQ    DCD    1363497823
        0x00001680:    5659555f    _UYV    DCD    1448695135
        0x00001684:    00000a59    Y...    DCD    2649
        0x00001688:    50534944    DISP    DCD    1347635524
        0x0000168c:    5145535f    _SEQ    DCD    1363497823
        0x00001690:    5955595f    _YUY    DCD    1498765663
        0x00001694:    00000a56    V...    DCD    2646
        0x00001698:    50534944    DISP    DCD    1347635524
        0x0000169c:    5145535f    _SEQ    DCD    1363497823
        0x000016a0:    5559565f    _VYU    DCD    1431918175
        0x000016a4:    00000a59    Y...    DCD    2649
        0x000016a8:    50534944    DISP    DCD    1347635524
        0x000016ac:    5145535f    _SEQ    DCD    1363497823
        0x000016b0:    5956595f    _YVY    DCD    1498831199
        0x000016b4:    00000a55    U...    DCD    2645
        0x000016b8:    50534944    DISP    DCD    1347635524
        0x000016bc:    5145535f    _SEQ    DCD    1363497823
        0x000016c0:    5556555f    _UVU    DCD    1431721311
        0x000016c4:    00000a56    V...    DCD    2646
    $a
        0x000016c8:    e1a00000    ....    MOV      r0,r0
        0x000016cc:    e3a0000a    ....    MOV      r0,#0xa
        0x000016d0:    e51f1064    d...    LDR      r1,[pc,#-100] ; [0x1674] = 0x3205
        0x000016d4:    e5c10000    ....    STRB     r0,[r1,#0]
        0x000016d8:    e28f0fe5    ....    ADR      r0,{pc}+0x39c ; 0x1a74
        0x000016dc:    eb000473    s...    BL       eLIBs_printf ; 0x28b0
        0x000016e0:    ea00000d    ....    B        0x171c ; 0x171c
        0x000016e4:    e1a00000    ....    MOV      r0,r0
        0x000016e8:    e3a00007    ....    MOV      r0,#7
        0x000016ec:    e51f1080    ....    LDR      r1,[pc,#-128] ; [0x1674] = 0x3205
        0x000016f0:    e5c10000    ....    STRB     r0,[r1,#0]
        0x000016f4:    e28f0fe2    ....    ADR      r0,{pc}+0x390 ; 0x1a84
        0x000016f8:    eb00046c    l...    BL       eLIBs_printf ; 0x28b0
        0x000016fc:    ea000006    ....    B        0x171c ; 0x171c
        0x00001700:    e1a00000    ....    MOV      r0,r0
        0x00001704:    e3a00008    ....    MOV      r0,#8
        0x00001708:    e51f109c    ....    LDR      r1,[pc,#-156] ; [0x1674] = 0x3205
        0x0000170c:    e5c10000    ....    STRB     r0,[r1,#0]
        0x00001710:    e28f0fdf    ....    ADR      r0,{pc}+0x384 ; 0x1a94
        0x00001714:    eb000465    e...    BL       eLIBs_printf ; 0x28b0
        0x00001718:    e1a00000    ....    MOV      r0,r0
        0x0000171c:    e1a00000    ....    MOV      r0,r0
        0x00001720:    e28d0e27    '...    ADD      r0,sp,#0x270
        0x00001724:    e59dc4dc    ....    LDR      r12,[sp,#0x4dc]
        0x00001728:    e080028c    ....    ADD      r0,r0,r12,LSL #5
        0x0000172c:    e5900008    ....    LDR      r0,[r0,#8]
        0x00001730:    e3500000    ..P.    CMP      r0,#0
        0x00001734:    0a000004    ....    BEQ      0x174c ; 0x174c
        0x00001738:    e3500001    ..P.    CMP      r0,#1
        0x0000173c:    0a000010    ....    BEQ      0x1784 ; 0x1784
        0x00001740:    e3500003    ..P.    CMP      r0,#3
        0x00001744:    1a000015    ....    BNE      0x17a0 ; 0x17a0
        0x00001748:    ea000006    ....    B        0x1768 ; 0x1768
        0x0000174c:    e1a00000    ....    MOV      r0,r0
        0x00001750:    e3a00001    ....    MOV      r0,#1
        0x00001754:    e59f1348    H...    LDR      r1,[pc,#840] ; [0x1aa4] = 0x3204
        0x00001758:    e5c10000    ....    STRB     r0,[r1,#0]
        0x0000175c:    e28f0fd1    ....    ADR      r0,{pc}+0x34c ; 0x1aa8
        0x00001760:    eb000452    R...    BL       eLIBs_printf ; 0x28b0
        0x00001764:    ea00000d    ....    B        0x17a0 ; 0x17a0
        0x00001768:    e1a00000    ....    MOV      r0,r0
        0x0000176c:    e3a00002    ....    MOV      r0,#2
        0x00001770:    e59f132c    ,...    LDR      r1,[pc,#812] ; [0x1aa4] = 0x3204
        0x00001774:    e5c10000    ....    STRB     r0,[r1,#0]
        0x00001778:    e28f0d0d    ....    ADR      r0,{pc}+0x348 ; 0x1ac0
        0x0000177c:    eb00044b    K...    BL       eLIBs_printf ; 0x28b0
        0x00001780:    ea000006    ....    B        0x17a0 ; 0x17a0
        0x00001784:    e1a00000    ....    MOV      r0,r0
        0x00001788:    e3a00000    ....    MOV      r0,#0
        0x0000178c:    e59f1310    ....    LDR      r1,[pc,#784] ; [0x1aa4] = 0x3204
        0x00001790:    e5c10000    ....    STRB     r0,[r1,#0]
        0x00001794:    e28f0fd1    ....    ADR      r0,{pc}+0x34c ; 0x1ae0
        0x00001798:    eb000444    D...    BL       eLIBs_printf ; 0x28b0
        0x0000179c:    e1a00000    ....    MOV      r0,r0
        0x000017a0:    e1a00000    ....    MOV      r0,r0
        0x000017a4:    e28d0e27    '...    ADD      r0,sp,#0x270
        0x000017a8:    e59dc4dc    ....    LDR      r12,[sp,#0x4dc]
        0x000017ac:    e080028c    ....    ADD      r0,r0,r12,LSL #5
        0x000017b0:    e590000c    ....    LDR      r0,[r0,#0xc]
        0x000017b4:    e59f133c    <...    LDR      r1,[pc,#828] ; [0x1af8] = 0x31b4
        0x000017b8:    e5810000    ....    STR      r0,[r1,#0]
        0x000017bc:    e28d0e27    '...    ADD      r0,sp,#0x270
        0x000017c0:    e59dc4dc    ....    LDR      r12,[sp,#0x4dc]
        0x000017c4:    e080028c    ....    ADD      r0,r0,r12,LSL #5
        0x000017c8:    e5900010    ....    LDR      r0,[r0,#0x10]
        0x000017cc:    e59f1328    (...    LDR      r1,[pc,#808] ; [0x1afc] = 0x31b8
        0x000017d0:    e5810000    ....    STR      r0,[r1,#0]
        0x000017d4:    e28d0e27    '...    ADD      r0,sp,#0x270
        0x000017d8:    e59dc4dc    ....    LDR      r12,[sp,#0x4dc]
        0x000017dc:    e080028c    ....    ADD      r0,r0,r12,LSL #5
        0x000017e0:    e590000c    ....    LDR      r0,[r0,#0xc]
        0x000017e4:    e59f1314    ....    LDR      r1,[pc,#788] ; [0x1b00] = 0x31bc
        0x000017e8:    e5810000    ....    STR      r0,[r1,#0]
        0x000017ec:    e28d0e27    '...    ADD      r0,sp,#0x270
        0x000017f0:    e59dc4dc    ....    LDR      r12,[sp,#0x4dc]
        0x000017f4:    e080028c    ....    ADD      r0,r0,r12,LSL #5
        0x000017f8:    e5900010    ....    LDR      r0,[r0,#0x10]
        0x000017fc:    e59f1300    ....    LDR      r1,[pc,#768] ; [0x1b04] = 0x31c0
        0x00001800:    e5810000    ....    STR      r0,[r1,#0]
        0x00001804:    e1a00000    ....    MOV      r0,r0
        0x00001808:    e3a00d05    ....    MOV      r0,#0x140
        0x0000180c:    e59f12f4    ....    LDR      r1,[pc,#756] ; [0x1b08] = 0x31ac
        0x00001810:    e5810000    ....    STR      r0,[r1,#0]
        0x00001814:    e3a000f0    ....    MOV      r0,#0xf0
        0x00001818:    e59f12ec    ....    LDR      r1,[pc,#748] ; [0x1b0c] = 0x31b0
        0x0000181c:    e5810000    ....    STR      r0,[r1,#0]
        0x00001820:    e28f1fba    ....    ADR      r1,{pc}+0x2f0 ; 0x1b10
        0x00001824:    e28f0fba    ....    ADR      r0,{pc}+0x2f0 ; 0x1b14
        0x00001828:    eb000139    9...    BL       eLIBs_fopen ; 0x1d14
        0x0000182c:    e1a09000    ....    MOV      r9,r0
        0x00001830:    e3590000    ..Y.    CMP      r9,#0
        0x00001834:    1a000007    ....    BNE      0x1858 ; 0x1858
        0x00001838:    e51f25e4    .%..    LDR      r2,[pc,#-1508] ; [0x125c] = 0xaec
        0x0000183c:    e3a01f7f    ....    MOV      r1,#0x1fc
        0x00001840:    e28f0fb7    ....    ADR      r0,{pc}+0x2e4 ; 0x1b24
        0x00001844:    eb000419    ....    BL       eLIBs_printf ; 0x28b0
        0x00001848:    e28f0fb9    ....    ADR      r0,{pc}+0x2ec ; 0x1b34
        0x0000184c:    eb000417    ....    BL       eLIBs_printf ; 0x28b0
        0x00001850:    e3e00000    ....    MVN      r0,#0
        0x00001854:    eafffc68    h...    B        0x9fc ; app_main + 360
        0x00001858:    e3a08000    ....    MOV      r8,#0
        0x0000185c:    e3a00000    ....    MOV      r0,#0
        0x00001860:    e58d0008    ....    STR      r0,[sp,#8]
        0x00001864:    e58d000c    ....    STR      r0,[sp,#0xc]
        0x00001868:    e58d0010    ....    STR      r0,[sp,#0x10]
        0x0000186c:    e28d3008    .0..    ADD      r3,sp,#8
        0x00001870:    e1a02008    . ..    MOV      r2,r8
        0x00001874:    e3a01d05    ....    MOV      r1,#0x140
        0x00001878:    e1a00009    ....    MOV      r0,r9
        0x0000187c:    eb000149    I...    BL       eLIBs_fioctrl ; 0x1da8
        0x00001880:    e59d0088    ....    LDR      r0,[sp,#0x88]
        0x00001884:    e58d003c    <...    STR      r0,[sp,#0x3c]
        0x00001888:    e59d008c    ....    LDR      r0,[sp,#0x8c]
        0x0000188c:    e58d0040    @...    STR      r0,[sp,#0x40]
        0x00001890:    e59d0090    ....    LDR      r0,[sp,#0x90]
        0x00001894:    e58d0044    D...    STR      r0,[sp,#0x44]
        0x00001898:    e59f0258    X...    LDR      r0,[pc,#600] ; [0x1af8] = 0x31b4
        0x0000189c:    e5900000    ....    LDR      r0,[r0,#0]
        0x000018a0:    e58d0048    H...    STR      r0,[sp,#0x48]
        0x000018a4:    e59f0250    P...    LDR      r0,[pc,#592] ; [0x1afc] = 0x31b8
        0x000018a8:    e5900000    ....    LDR      r0,[r0,#0]
        0x000018ac:    e58d004c    L...    STR      r0,[sp,#0x4c]
        0x000018b0:    e59f01ec    ....    LDR      r0,[pc,#492] ; [0x1aa4] = 0x3204
        0x000018b4:    e5d00000    ....    LDRB     r0,[r0,#0]
        0x000018b8:    e5cd0052    R...    STRB     r0,[sp,#0x52]
        0x000018bc:    e51f02c4    ....    LDR      r0,[pc,#-708] ; [0x1600] = 0x3206
        0x000018c0:    e5d00000    ....    LDRB     r0,[r0,#0]
        0x000018c4:    e5cd0050    P...    STRB     r0,[sp,#0x50]
        0x000018c8:    e3a00000    ....    MOV      r0,#0
        0x000018cc:    e5cd0053    S...    STRB     r0,[sp,#0x53]
        0x000018d0:    e51f0264    d...    LDR      r0,[pc,#-612] ; [0x1674] = 0x3205
        0x000018d4:    e5d00000    ....    LDRB     r0,[r0,#0]
        0x000018d8:    e5cd0051    Q...    STRB     r0,[sp,#0x51]
        0x000018dc:    e3a00000    ....    MOV      r0,#0
        0x000018e0:    e5cd001a    ....    STRB     r0,[sp,#0x1a]
        0x000018e4:    e3a00001    ....    MOV      r0,#1
        0x000018e8:    e5cd0017    ....    STRB     r0,[sp,#0x17]
        0x000018ec:    e3a000ff    ....    MOV      r0,#0xff
        0x000018f0:    e1cd01b8    ....    STRH     r0,[sp,#0x18]
        0x000018f4:    e3a00000    ....    MOV      r0,#0
        0x000018f8:    e5cd0015    ....    STRB     r0,[sp,#0x15]
        0x000018fc:    e58d001c    ....    STR      r0,[sp,#0x1c]
        0x00001900:    e58d0020     ...    STR      r0,[sp,#0x20]
        0x00001904:    e59f01f4    ....    LDR      r0,[pc,#500] ; [0x1b00] = 0x31bc
        0x00001908:    e5900000    ....    LDR      r0,[r0,#0]
        0x0000190c:    e58d0024    $...    STR      r0,[sp,#0x24]
        0x00001910:    e59f01ec    ....    LDR      r0,[pc,#492] ; [0x1b04] = 0x31c0
        0x00001914:    e5900000    ....    LDR      r0,[r0,#0]
        0x00001918:    e58d0028    (...    STR      r0,[sp,#0x28]
        0x0000191c:    e3a00000    ....    MOV      r0,#0
        0x00001920:    e58d002c    ,...    STR      r0,[sp,#0x2c]
        0x00001924:    e58d0030    0...    STR      r0,[sp,#0x30]
        0x00001928:    e59f01d8    ....    LDR      r0,[pc,#472] ; [0x1b08] = 0x31ac
        0x0000192c:    e5900000    ....    LDR      r0,[r0,#0]
        0x00001930:    e58d0034    4...    STR      r0,[sp,#0x34]
        0x00001934:    e59f01d0    ....    LDR      r0,[pc,#464] ; [0x1b0c] = 0x31b0
        0x00001938:    e5900000    ....    LDR      r0,[r0,#0]
        0x0000193c:    e58d0038    8...    STR      r0,[sp,#0x38]
        0x00001940:    e3a00004    ....    MOV      r0,#4
        0x00001944:    e58d0008    ....    STR      r0,[sp,#8]
        0x00001948:    e3a00000    ....    MOV      r0,#0
        0x0000194c:    e58d000c    ....    STR      r0,[sp,#0xc]
        0x00001950:    e58d0010    ....    STR      r0,[sp,#0x10]
        0x00001954:    e28d3008    .0..    ADD      r3,sp,#8
        0x00001958:    e1a02008    . ..    MOV      r2,r8
        0x0000195c:    e3a01040    @...    MOV      r1,#0x40
        0x00001960:    e1a00009    ....    MOV      r0,r9
        0x00001964:    eb00010f    ....    BL       eLIBs_fioctrl ; 0x1da8
        0x00001968:    e1a06000    .`..    MOV      r6,r0
        0x0000196c:    e3560000    ..V.    CMP      r6,#0
        0x00001970:    1a000006    ....    BNE      0x1990 ; 0x1990
        0x00001974:    e24f2ee9    ..O.    ADR      r2,{pc}-0xe88 ; 0xaec
        0x00001978:    e59f11d0    ....    LDR      r1,[pc,#464] ; [0x1b50] = 0x223
        0x0000197c:    e28f0e1a    ....    ADR      r0,{pc}+0x1a8 ; 0x1b24
        0x00001980:    eb0003ca    ....    BL       eLIBs_printf ; 0x28b0
        0x00001984:    e28f0f72    r...    ADR      r0,{pc}+0x1d0 ; 0x1b54
        0x00001988:    eb0003c8    ....    BL       eLIBs_printf ; 0x28b0
        0x0000198c:    ea00001b    ....    B        0x1a00 ; 0x1a00
        0x00001990:    e3a00004    ....    MOV      r0,#4
        0x00001994:    e5cd0014    ....    STRB     r0,[sp,#0x14]
        0x00001998:    e3a00000    ....    MOV      r0,#0
        0x0000199c:    e5cd0015    ....    STRB     r0,[sp,#0x15]
        0x000019a0:    e58d6008    .`..    STR      r6,[sp,#8]
        0x000019a4:    e28d0014    ....    ADD      r0,sp,#0x14
        0x000019a8:    e58d000c    ....    STR      r0,[sp,#0xc]
        0x000019ac:    e3a00000    ....    MOV      r0,#0
        0x000019b0:    e58d0010    ....    STR      r0,[sp,#0x10]
        0x000019b4:    e28d3008    .0..    ADD      r3,sp,#8
        0x000019b8:    e1a02008    . ..    MOV      r2,r8
        0x000019bc:    e3a0104a    J...    MOV      r1,#0x4a
        0x000019c0:    e1a00009    ....    MOV      r0,r9
        0x000019c4:    eb0000f7    ....    BL       eLIBs_fioctrl ; 0x1da8
        0x000019c8:    e58d6008    .`..    STR      r6,[sp,#8]
        0x000019cc:    e3a00000    ....    MOV      r0,#0
        0x000019d0:    e58d000c    ....    STR      r0,[sp,#0xc]
        0x000019d4:    e58d0010    ....    STR      r0,[sp,#0x10]
        0x000019d8:    e28d3008    .0..    ADD      r3,sp,#8
        0x000019dc:    e1a02008    . ..    MOV      r2,r8
        0x000019e0:    e3a01042    B...    MOV      r1,#0x42
        0x000019e4:    e1a00009    ....    MOV      r0,r9
        0x000019e8:    eb0000ee    ....    BL       eLIBs_fioctrl ; 0x1da8
        0x000019ec:    e28d3008    .0..    ADD      r3,sp,#8
        0x000019f0:    e1a02008    . ..    MOV      r2,r8
        0x000019f4:    e3a01056    V...    MOV      r1,#0x56
        0x000019f8:    e1a00009    ....    MOV      r0,r9
        0x000019fc:    eb0000e9    ....    BL       eLIBs_fioctrl ; 0x1da8
        0x00001a00:    e3a00000    ....    MOV      r0,#0
        0x00001a04:    e58d04b8    ....    STR      r0,[sp,#0x4b8]
        0x00001a08:    e3a00001    ....    MOV      r0,#1
        0x00001a0c:    e59f1158    X...    LDR      r1,[pc,#344] ; [0x1b6c] = 0x31e0
        0x00001a10:    e5810000    ....    STR      r0,[r1,#0]
        0x00001a14:    e59f00dc    ....    LDR      r0,[pc,#220] ; [0x1af8] = 0x31b4
        0x00001a18:    e5900000    ....    LDR      r0,[r0,#0]
        0x00001a1c:    e59f10d8    ....    LDR      r1,[pc,#216] ; [0x1afc] = 0x31b8
        0x00001a20:    e5911000    ....    LDR      r1,[r1,#0]
        0x00001a24:    e0000091    ....    MUL      r0,r1,r0
        0x00001a28:    e1a00080    ....    LSL      r0,r0,#1
        0x00001a2c:    e59f113c    <...    LDR      r1,[pc,#316] ; [0x1b70] = 0x3208
        0x00001a30:    e5810000    ....    STR      r0,[r1,#0]
        0x00001a34:    e24f2ef5    ..O.    ADR      r2,{pc}-0xf48 ; 0xaec
        0x00001a38:    e59f1134    4...    LDR      r1,[pc,#308] ; [0x1b74] = 0x242
        0x00001a3c:    e59f0134    4...    LDR      r0,[pc,#308] ; [0x1b78] = 0x1268
        0x00001a40:    eb00039a    ....    BL       eLIBs_printf ; 0x28b0
        0x00001a44:    e28f0e13    ....    ADR      r0,{pc}+0x138 ; 0x1b7c
        0x00001a48:    eb000398    ....    BL       eLIBs_printf ; 0x28b0
        0x00001a4c:    e3a00f4b    K...    MOV      r0,#0x12c
        0x00001a50:    ef00010e    ....    SVC      #0x10e ; formerly SWI
        0x00001a54:    e3a03000    .0..    MOV      r3,#0
        0x00001a58:    e3a02000    . ..    MOV      r2,#0
        0x00001a5c:    e3a01006    ....    MOV      r1,#6
        0x00001a60:    e51f0fd4    ....    LDR      r0,[pc,#-4052] ; [0xa94] = 0x31d0
        0x00001a64:    e5900000    ....    LDR      r0,[r0,#0]
        0x00001a68:    eb0000ce    ....    BL       eLIBs_fioctrl ; 0x1da8
        0x00001a6c:    e1a00000    ....    MOV      r0,r0
        0x00001a70:    ea00008b    ....    B        0x1ca4 ; 0x1ca4
    $d
        0x00001a74:    50534944    DISP    DCD    1347635524
        0x00001a78:    5145535f    _SEQ    DCD    1363497823
        0x00001a7c:    5655565f    _VUV    DCD    1448433247
        0x00001a80:    00000a55    U...    DCD    2645
        0x00001a84:    50534944    DISP    DCD    1347635524
        0x00001a88:    5145535f    _SEQ    DCD    1363497823
        0x00001a8c:    5559415f    _AYU    DCD    1431912799
        0x00001a90:    00000a56    V...    DCD    2646
        0x00001a94:    50534944    DISP    DCD    1347635524
        0x00001a98:    5145535f    _SEQ    DCD    1363497823
        0x00001a9c:    5955565f    _VUY    DCD    1498764895
        0x00001aa0:    00000a41    A...    DCD    2625
        0x00001aa4:    00003204    .2..    DCD    12804
        0x00001aa8:    50534944    DISP    DCD    1347635524
        0x00001aac:    444f4d5f    _MOD    DCD    1146047839
        0x00001ab0:    544e495f    _INT    DCD    1414416735
        0x00001ab4:    454c5245    ERLE    DCD    1162629701
        0x00001ab8:    44455641    AVED    DCD    1145394753
        0x00001abc:    0000000a    ....    DCD    10
        0x00001ac0:    50534944    DISP    DCD    1347635524
        0x00001ac4:    444f4d5f    _MOD    DCD    1146047839
        0x00001ac8:    4e4f4e5f    _NON    DCD    1313820255
        0x00001acc:    5f424d5f    _MB_    DCD    1598180703
        0x00001ad0:    435f5655    UV_C    DCD    1130321493
        0x00001ad4:    49424d4f    OMBI    DCD    1229081935
        0x00001ad8:    0a44454e    NED.    DCD    172246350
        0x00001adc:    00000000    ....    DCD    0
        0x00001ae0:    50534944    DISP    DCD    1347635524
        0x00001ae4:    444f4d5f    _MOD    DCD    1146047839
        0x00001ae8:    4e4f4e5f    _NON    DCD    1313820255
        0x00001aec:    5f424d5f    _MB_    DCD    1598180703
        0x00001af0:    4e414c50    PLAN    DCD    1312902224
        0x00001af4:    000a5241    AR..    DCD    676417
        0x00001af8:    000031b4    .1..    DCD    12724
        0x00001afc:    000031b8    .1..    DCD    12728
        0x00001b00:    000031bc    .1..    DCD    12732
        0x00001b04:    000031c0    .1..    DCD    12736
        0x00001b08:    000031ac    .1..    DCD    12716
        0x00001b0c:    000031b0    .1..    DCD    12720
        0x00001b10:    00002b72    r+..    DCD    11122
        0x00001b14:    445c3a62    b:\D    DCD    1146894946
        0x00001b18:    5c505349    ISP\    DCD    1548768073
        0x00001b1c:    50534944    DISP    DCD    1347635524
        0x00001b20:    0059414c    LAY.    DCD    5849420
        0x00001b24:    3a4e5257    WRN:    DCD    978211415
        0x00001b28:    2864254c    L%d(    DCD    677651788
        0x00001b2c:    3a297325    %s):    DCD    975794981
        0x00001b30:    00000000    ....    DCD    0
        0x00001b34:    6e65706f    open    DCD    1852141679
        0x00001b38:    73696420     dis    DCD    1936286752
        0x00001b3c:    79616c70    play    DCD    2036427888
        0x00001b40:    76656420     dev    DCD    1986356256
        0x00001b44:    20656369    ice     DCD    543515497
        0x00001b48:    6c696166    fail    DCD    1818845542
        0x00001b4c:    00000a21    !...    DCD    2593
        0x00001b50:    00000223    #...    DCD    547
        0x00001b54:    75716572    requ    DCD    1970365810
        0x00001b58:    20747365    est     DCD    544502629
        0x00001b5c:    6579616c    laye    DCD    1702453612
        0x00001b60:    66203072    r0 f    DCD    1713385586
        0x00001b64:    0a6c6961    ail.    DCD    174877025
        0x00001b68:    00000000    ....    DCD    0
        0x00001b6c:    000031e0    .1..    DCD    12768
        0x00001b70:    00003208    .2..    DCD    12808
        0x00001b74:    00000242    B...    DCD    578
        0x00001b78:    00001268    h...    DCD    4712
        0x00001b7c:    72617473    star    DCD    1918989427
        0x00001b80:    6f742074    t to    DCD    1869881460
        0x00001b84:    71657220     req    DCD    1902473760
        0x00001b88:    20747375    ust     DCD    544502645
        0x00001b8c:    20697363    csi     DCD    543781731
        0x00001b90:    6d617266    fram    DCD    1835102822
        0x00001b94:    00000a65    e...    DCD    2661
    $a
        0x00001b98:    e59f3134    41..    LDR      r3,[pc,#308] ; [0x1cd4] = 0x3214
        0x00001b9c:    e3a02000    . ..    MOV      r2,#0
        0x00001ba0:    e3a01008    ....    MOV      r1,#8
        0x00001ba4:    e59f012c    ,...    LDR      r0,[pc,#300] ; [0x1cd8] = 0x31d0
        0x00001ba8:    e5900000    ....    LDR      r0,[r0,#0]
        0x00001bac:    eb00007d    }...    BL       eLIBs_fioctrl ; 0x1da8
        0x00001bb0:    e1a04000    .@..    MOV      r4,r0
        0x00001bb4:    e3540000    ..T.    CMP      r4,#0
        0x00001bb8:    1a000036    6...    BNE      0x1c98 ; 0x1c98
        0x00001bbc:    e59f0110    ....    LDR      r0,[pc,#272] ; [0x1cd4] = 0x3214
        0x00001bc0:    e5900000    ....    LDR      r0,[r0,#0]
        0x00001bc4:    e5900028    (...    LDR      r0,[r0,#0x28]
        0x00001bc8:    e58d003c    <...    STR      r0,[sp,#0x3c]
        0x00001bcc:    e59f0100    ....    LDR      r0,[pc,#256] ; [0x1cd4] = 0x3214
        0x00001bd0:    e5900000    ....    LDR      r0,[r0,#0]
        0x00001bd4:    e590002c    ,...    LDR      r0,[r0,#0x2c]
        0x00001bd8:    e58d0040    @...    STR      r0,[sp,#0x40]
        0x00001bdc:    e59f00f0    ....    LDR      r0,[pc,#240] ; [0x1cd4] = 0x3214
        0x00001be0:    e5900000    ....    LDR      r0,[r0,#0]
        0x00001be4:    e5900030    0...    LDR      r0,[r0,#0x30]
        0x00001be8:    e58d0044    D...    STR      r0,[sp,#0x44]
        0x00001bec:    e3a08000    ....    MOV      r8,#0
        0x00001bf0:    e58d6008    .`..    STR      r6,[sp,#8]
        0x00001bf4:    e28d0014    ....    ADD      r0,sp,#0x14
        0x00001bf8:    e58d000c    ....    STR      r0,[sp,#0xc]
        0x00001bfc:    e3a00000    ....    MOV      r0,#0
        0x00001c00:    e58d0010    ....    STR      r0,[sp,#0x10]
        0x00001c04:    e28d3008    .0..    ADD      r3,sp,#8
        0x00001c08:    e1a02008    . ..    MOV      r2,r8
        0x00001c0c:    e3a0104a    J...    MOV      r1,#0x4a
        0x00001c10:    e1a00009    ....    MOV      r0,r9
        0x00001c14:    eb000063    c...    BL       eLIBs_fioctrl ; 0x1da8
        0x00001c18:    e59f00b4    ....    LDR      r0,[pc,#180] ; [0x1cd4] = 0x3214
        0x00001c1c:    e5900000    ....    LDR      r0,[r0,#0]
        0x00001c20:    e3a03000    .0..    MOV      r3,#0
        0x00001c24:    e3a01009    ....    MOV      r1,#9
        0x00001c28:    e5902000    . ..    LDR      r2,[r0,#0]
        0x00001c2c:    e59f00a4    ....    LDR      r0,[pc,#164] ; [0x1cd8] = 0x31d0
        0x00001c30:    e5900000    ....    LDR      r0,[r0,#0]
        0x00001c34:    eb00005b    [...    BL       eLIBs_fioctrl ; 0x1da8
        0x00001c38:    e1a04000    .@..    MOV      r4,r0
        0x00001c3c:    e59f0098    ....    LDR      r0,[pc,#152] ; [0x1cdc] = 0x31c4
        0x00001c40:    e5900000    ....    LDR      r0,[r0,#0]
        0x00001c44:    e3500001    ..P.    CMP      r0,#1
        0x00001c48:    1a000014    ....    BNE      0x1ca0 ; 0x1ca0
        0x00001c4c:    e59d04b8    ....    LDR      r0,[sp,#0x4b8]
        0x00001c50:    e0800007    ....    ADD      r0,r0,r7
        0x00001c54:    e58d04b8    ....    STR      r0,[sp,#0x4b8]
        0x00001c58:    e1a00000    ....    MOV      r0,r0
        0x00001c5c:    e3a01ffa    ....    MOV      r1,#0x3e8
        0x00001c60:    e59d04b8    ....    LDR      r0,[sp,#0x4b8]
        0x00001c64:    eb0003f6    ....    BL       __aeabi_idiv ; 0x2c44
        0x00001c68:    e1510007    ..Q.    CMP      r1,r7
        0x00001c6c:    ca00000b    ....    BGT      0x1ca0 ; 0x1ca0
        0x00001c70:    e3a01ffa    ....    MOV      r1,#0x3e8
        0x00001c74:    e59d04b8    ....    LDR      r0,[sp,#0x4b8]
        0x00001c78:    eb0003f1    ....    BL       __aeabi_idiv ; 0x2c44
        0x00001c7c:    e59f105c    \...    LDR      r1,[pc,#92] ; [0x1ce0] = 0x31e4
        0x00001c80:    e5d11000    ....    LDRB     r1,[r1,#0]
        0x00001c84:    e041b000    ..A.    SUB      r11,r1,r0
        0x00001c88:    e1a0100b    ....    MOV      r1,r11
        0x00001c8c:    e28f0050    P...    ADR      r0,{pc}+0x58 ; 0x1ce4
        0x00001c90:    eb000306    ....    BL       eLIBs_printf ; 0x28b0
        0x00001c94:    ea000001    ....    B        0x1ca0 ; 0x1ca0
        0x00001c98:    e3a00002    ....    MOV      r0,#2
        0x00001c9c:    ef00010e    ....    SVC      #0x10e ; formerly SWI
        0x00001ca0:    e1a00000    ....    MOV      r0,r0
        0x00001ca4:    eaffffbb    ....    B        0x1b98 ; 0x1b98
    record_capture_on_times
        0x00001ca8:    e59f0048    H...    LDR      r0,[pc,#72] ; [0x1cf8] = 0x3200
        0x00001cac:    e5900000    ....    LDR      r0,[r0,#0]
        0x00001cb0:    e2800001    ....    ADD      r0,r0,#1
        0x00001cb4:    e59f103c    <...    LDR      r1,[pc,#60] ; [0x1cf8] = 0x3200
        0x00001cb8:    e5810000    ....    STR      r0,[r1,#0]
        0x00001cbc:    e12fff1e    ../.    BX       lr
    test_csi
        0x00001cc0:    e92d4010    .@-.    PUSH     {r4,lr}
        0x00001cc4:    e3a00000    ....    MOV      r0,#0
        0x00001cc8:    ebfffaf1    ....    BL       app_main ; 0x894
        0x00001ccc:    e3a00000    ....    MOV      r0,#0
        0x00001cd0:    e8bd8010    ....    POP      {r4,pc}
    $d
        0x00001cd4:    00003214    .2..    DCD    12820
        0x00001cd8:    000031d0    .1..    DCD    12752
        0x00001cdc:    000031c4    .1..    DCD    12740
        0x00001ce0:    000031e4    .1..    DCD    12772
        0x00001ce4:    656d6974    time    DCD    1701669236
        0x00001ce8:    756f6320     cou    DCD    1970234144
        0x00001cec:    6420746e    nt d    DCD    1679848558
        0x00001cf0:    206e776f    own     DCD    544110447
        0x00001cf4:    000a6425    %d..    DCD    680997
        0x00001cf8:    00003200    .2..    DCD    12800
    $a
    .text
    eLIBs_remove
        0x00001cfc:    e92d4010    .@-.    PUSH     {r4,lr}
        0x00001d00:    ef000306    ....    SVC      #0x306 ; formerly SWI
        0x00001d04:    e8bd8010    ....    POP      {r4,pc}
    eLIBs_rename
        0x00001d08:    e92d4010    .@-.    PUSH     {r4,lr}
        0x00001d0c:    ef000307    ....    SVC      #0x307 ; formerly SWI
        0x00001d10:    e8bd8010    ....    POP      {r4,pc}
    eLIBs_fopen
        0x00001d14:    e92d4010    .@-.    PUSH     {r4,lr}
        0x00001d18:    ef000308    ....    SVC      #0x308 ; formerly SWI
        0x00001d1c:    e8bd8010    ....    POP      {r4,pc}
    eLIBs_fclose
        0x00001d20:    e92d4010    .@-.    PUSH     {r4,lr}
        0x00001d24:    ef000309    ....    SVC      #0x309 ; formerly SWI
        0x00001d28:    e8bd8010    ....    POP      {r4,pc}
    eLIBs_fsync
        0x00001d2c:    e92d4010    .@-.    PUSH     {r4,lr}
        0x00001d30:    ef000329    )...    SVC      #0x329 ; formerly SWI
        0x00001d34:    e8bd8010    ....    POP      {r4,pc}
    eLIBs_fread
        0x00001d38:    e92d4010    .@-.    PUSH     {r4,lr}
        0x00001d3c:    ef00030a    ....    SVC      #0x30a ; formerly SWI
        0x00001d40:    e8bd8010    ....    POP      {r4,pc}
    eLIBs_fwrite
        0x00001d44:    e92d4010    .@-.    PUSH     {r4,lr}
        0x00001d48:    ef00030b    ....    SVC      #0x30b ; formerly SWI
        0x00001d4c:    e8bd8010    ....    POP      {r4,pc}
    eLIBs_fseek
        0x00001d50:    e92d4010    .@-.    PUSH     {r4,lr}
        0x00001d54:    ef00030c    ....    SVC      #0x30c ; formerly SWI
        0x00001d58:    e8bd8010    ....    POP      {r4,pc}
    eLIBs_ftell
        0x00001d5c:    e92d4010    .@-.    PUSH     {r4,lr}
        0x00001d60:    ef00030d    ....    SVC      #0x30d ; formerly SWI
        0x00001d64:    e8bd8010    ....    POP      {r4,pc}
    eLIBs_fllseek
        0x00001d68:    e1a01002    ....    MOV      r1,r2
        0x00001d6c:    e1a02003    . ..    MOV      r2,r3
        0x00001d70:    e92d4010    .@-.    PUSH     {r4,lr}
        0x00001d74:    e59d3008    .0..    LDR      r3,[sp,#8]
        0x00001d78:    ef00030e    ....    SVC      #0x30e ; formerly SWI
        0x00001d7c:    e8bd8010    ....    POP      {r4,pc}
    eLIBs_flltell
        0x00001d80:    e92d401c    .@-.    PUSH     {r2-r4,lr}
        0x00001d84:    e1a0200d    . ..    MOV      r2,sp
        0x00001d88:    e28d1004    ....    ADD      r1,sp,#4
        0x00001d8c:    ef00030f    ....    SVC      #0x30f ; formerly SWI
        0x00001d90:    e3500000    ..P.    CMP      r0,#0
        0x00001d94:    059d0004    ....    LDREQ    r0,[sp,#4]
        0x00001d98:    059d1000    ....    LDREQ    r1,[sp,#0]
        0x00001d9c:    13e00000    ....    MVNNE    r0,#0
        0x00001da0:    13e01000    ....    MVNNE    r1,#0
        0x00001da4:    e8bd801c    ....    POP      {r2-r4,pc}
    eLIBs_fioctrl
        0x00001da8:    e92d4010    .@-.    PUSH     {r4,lr}
        0x00001dac:    ef000310    ....    SVC      #0x310 ; formerly SWI
        0x00001db0:    e8bd8010    ....    POP      {r4,pc}
    eLIBs_ferror
        0x00001db4:    e92d4010    .@-.    PUSH     {r4,lr}
        0x00001db8:    ef000311    ....    SVC      #0x311 ; formerly SWI
        0x00001dbc:    e8bd8010    ....    POP      {r4,pc}
    eLIBs_ferrclr
        0x00001dc0:    e92d4010    .@-.    PUSH     {r4,lr}
        0x00001dc4:    ef000312    ....    SVC      #0x312 ; formerly SWI
        0x00001dc8:    e8bd8010    ....    POP      {r4,pc}
    eLIBs_opendir
        0x00001dcc:    e92d4010    .@-.    PUSH     {r4,lr}
        0x00001dd0:    ef000300    ....    SVC      #0x300 ; formerly SWI
        0x00001dd4:    e8bd8010    ....    POP      {r4,pc}
    eLIBs_closedir
        0x00001dd8:    e92d4010    .@-.    PUSH     {r4,lr}
        0x00001ddc:    ef000301    ....    SVC      #0x301 ; formerly SWI
        0x00001de0:    e8bd8010    ....    POP      {r4,pc}
    eLIBs_readdir
        0x00001de4:    e92d4010    .@-.    PUSH     {r4,lr}
        0x00001de8:    ef000302    ....    SVC      #0x302 ; formerly SWI
        0x00001dec:    e8bd8010    ....    POP      {r4,pc}
    eLIBs_rewinddir
        0x00001df0:    e92d4010    .@-.    PUSH     {r4,lr}
        0x00001df4:    ef000303    ....    SVC      #0x303 ; formerly SWI
        0x00001df8:    e8bd8010    ....    POP      {r4,pc}
    eLIBs_mkdir
        0x00001dfc:    e92d4010    .@-.    PUSH     {r4,lr}
        0x00001e00:    ef000304    ....    SVC      #0x304 ; formerly SWI
        0x00001e04:    e8bd8010    ....    POP      {r4,pc}
    eLIBs_rmdir
        0x00001e08:    e92d4010    .@-.    PUSH     {r4,lr}
        0x00001e0c:    ef000305    ....    SVC      #0x305 ; formerly SWI
        0x00001e10:    e8bd8010    ....    POP      {r4,pc}
    eLIBs_DirEnt2Attr
        0x00001e14:    e5d00004    ....    LDRB     r0,[r0,#4]
        0x00001e18:    e5810000    ....    STR      r0,[r1,#0]
        0x00001e1c:    e12fff1e    ../.    BX       lr
    eLIBs_DirEnt2Name
        0x00001e20:    e92d4070    p@-.    PUSH     {r4-r6,lr}
        0x00001e24:    e1a04000    .@..    MOV      r4,r0
        0x00001e28:    e2800010    ....    ADD      r0,r0,#0x10
        0x00001e2c:    e1a05001    .P..    MOV      r5,r1
        0x00001e30:    eb0002e8    ....    BL       eLIBs_strlen ; 0x29d8
        0x00001e34:    e2802001    . ..    ADD      r2,r0,#1
        0x00001e38:    e1a00005    ....    MOV      r0,r5
        0x00001e3c:    e2841010    ....    ADD      r1,r4,#0x10
        0x00001e40:    e8bd4070    p@..    POP      {r4-r6,lr}
        0x00001e44:    ea000312    ....    B        eLIBs_memcpy ; 0x2a94
    eLIBs_DirEnt2Size
        0x00001e48:    e3a00020     ...    MOV      r0,#0x20
        0x00001e4c:    e12fff1e    ../.    BX       lr
    eLIBs_DirEnt2Time
        0x00001e50:    e3a00000    ....    MOV      r0,#0
        0x00001e54:    e12fff1e    ../.    BX       lr
    eLIBs_GetNumFiles
        0x00001e58:    e92d4070    p@-.    PUSH     {r4-r6,lr}
        0x00001e5c:    e1b06000    .`..    MOVS     r6,r0
        0x00001e60:    e3a04000    .@..    MOV      r4,#0
        0x00001e64:    e1a05004    .P..    MOV      r5,r4
        0x00001e68:    03e00000    ....    MVNEQ    r0,#0
        0x00001e6c:    03e01000    ....    MVNEQ    r1,#0
        0x00001e70:    08bd8070    p...    POPEQ    {r4-r6,pc}
        0x00001e74:    ea000004    ....    B        0x1e8c ; eLIBs_GetNumFiles + 52
        0x00001e78:    e5d00004    ....    LDRB     r0,[r0,#4]
        0x00001e7c:    e3100010    ....    TST      r0,#0x10
        0x00001e80:    1a000001    ....    BNE      0x1e8c ; eLIBs_GetNumFiles + 52
        0x00001e84:    e2944001    .@..    ADDS     r4,r4,#1
        0x00001e88:    e2a55000    .P..    ADC      r5,r5,#0
        0x00001e8c:    e1a00006    ....    MOV      r0,r6
        0x00001e90:    ef000302    ....    SVC      #0x302 ; formerly SWI
        0x00001e94:    e3500000    ..P.    CMP      r0,#0
        0x00001e98:    1afffff6    ....    BNE      0x1e78 ; eLIBs_GetNumFiles + 32
        0x00001e9c:    e1a00006    ....    MOV      r0,r6
        0x00001ea0:    ef000303    ....    SVC      #0x303 ; formerly SWI
        0x00001ea4:    e1a00004    ....    MOV      r0,r4
        0x00001ea8:    e1a01005    ....    MOV      r1,r5
        0x00001eac:    e8bd8070    p...    POP      {r4-r6,pc}
    eLIBs_GetNumSubItems
        0x00001eb0:    e92d4070    p@-.    PUSH     {r4-r6,lr}
        0x00001eb4:    e1b05000    .P..    MOVS     r5,r0
        0x00001eb8:    03e00000    ....    MVNEQ    r0,#0
        0x00001ebc:    e3a04000    .@..    MOV      r4,#0
        0x00001ec0:    08bd8070    p...    POPEQ    {r4-r6,pc}
        0x00001ec4:    ea000006    ....    B        0x1ee4 ; eLIBs_GetNumSubItems + 52
        0x00001ec8:    e5d01004    ....    LDRB     r1,[r0,#4]
        0x00001ecc:    e3110010    ....    TST      r1,#0x10
        0x00001ed0:    0a000002    ....    BEQ      0x1ee0 ; eLIBs_GetNumSubItems + 48
        0x00001ed4:    e5d00010    ....    LDRB     r0,[r0,#0x10]
        0x00001ed8:    e350002e    ..P.    CMP      r0,#0x2e
        0x00001edc:    0a000000    ....    BEQ      0x1ee4 ; eLIBs_GetNumSubItems + 52
        0x00001ee0:    e2844001    .@..    ADD      r4,r4,#1
        0x00001ee4:    e1a00005    ....    MOV      r0,r5
        0x00001ee8:    ef000302    ....    SVC      #0x302 ; formerly SWI
        0x00001eec:    e3500000    ..P.    CMP      r0,#0
        0x00001ef0:    1afffff4    ....    BNE      0x1ec8 ; eLIBs_GetNumSubItems + 24
        0x00001ef4:    e1a00005    ....    MOV      r0,r5
        0x00001ef8:    ef000303    ....    SVC      #0x303 ; formerly SWI
        0x00001efc:    e1a00004    ....    MOV      r0,r4
        0x00001f00:    e8bd8070    p...    POP      {r4-r6,pc}
    eLIBs_GetFileAttributes
        0x00001f04:    e92d4010    .@-.    PUSH     {r4,lr}
        0x00001f08:    e24dd040    @.M.    SUB      sp,sp,#0x40
        0x00001f0c:    e28f1f82    ....    ADR      r1,{pc}+0x210 ; 0x211c
        0x00001f10:    ef000308    ....    SVC      #0x308 ; formerly SWI
        0x00001f14:    e1b04000    .@..    MOVS     r4,r0
        0x00001f18:    0a000004    ....    BEQ      0x1f30 ; eLIBs_GetFileAttributes + 44
        0x00001f1c:    e1a0100d    ....    MOV      r1,sp
        0x00001f20:    e1a00004    ....    MOV      r0,r4
        0x00001f24:    ef00032a    *...    SVC      #0x32a ; formerly SWI
        0x00001f28:    e3500000    ..P.    CMP      r0,#0
        0x00001f2c:    0a000002    ....    BEQ      0x1f3c ; eLIBs_GetFileAttributes + 56
        0x00001f30:    e3a00000    ....    MOV      r0,#0
        0x00001f34:    e28dd040    @...    ADD      sp,sp,#0x40
        0x00001f38:    e8bd8010    ....    POP      {r4,pc}
        0x00001f3c:    e1a00004    ....    MOV      r0,r4
        0x00001f40:    ef000309    ....    SVC      #0x309 ; formerly SWI
        0x00001f44:    e1dd10b0    ....    LDRH     r1,[sp,#0]
        0x00001f48:    e3a00000    ....    MOV      r0,#0
        0x00001f4c:    e2011a0f    ....    AND      r1,r1,#0xf000
        0x00001f50:    e3510901    ..Q.    CMP      r1,#0x4000
        0x00001f54:    03a00010    ....    MOVEQ    r0,#0x10
        0x00001f58:    eafffff5    ....    B        0x1f34 ; eLIBs_GetFileAttributes + 48
    eLIBs_SetFileAttributes
        0x00001f5c:    e3a00000    ....    MOV      r0,#0
        0x00001f60:    e12fff1e    ../.    BX       lr
    eLIBs_GetDirSize
        0x00001f64:    e92d47f0    .G-.    PUSH     {r4-r10,lr}
        0x00001f68:    e59f71b0    .q..    LDR      r7,[pc,#432] ; [0x2120] = 0x3218
        0x00001f6c:    e1a0a000    ....    MOV      r10,r0
        0x00001f70:    e5970000    ....    LDR      r0,[r7,#0]
        0x00001f74:    e3a05000    .P..    MOV      r5,#0
        0x00001f78:    e3500020     .P.    CMP      r0,#0x20
        0x00001f7c:    c3e00000    ....    MVNGT    r0,#0
        0x00001f80:    e1a06005    .`..    MOV      r6,r5
        0x00001f84:    ca00000f    ....    BGT      0x1fc8 ; eLIBs_GetDirSize + 100
        0x00001f88:    e2800001    ....    ADD      r0,r0,#1
        0x00001f8c:    e5870000    ....    STR      r0,[r7,#0]
        0x00001f90:    e3a00000    ....    MOV      r0,#0
        0x00001f94:    e3a01b02    ....    MOV      r1,#0x800
        0x00001f98:    ef000207    ....    SVC      #0x207 ; formerly SWI
        0x00001f9c:    e1b09000    ....    MOVS     r9,r0
        0x00001fa0:    03e00001    ....    MVNEQ    r0,#1
        0x00001fa4:    0a000007    ....    BEQ      0x1fc8 ; eLIBs_GetDirSize + 100
        0x00001fa8:    e1a0000a    ....    MOV      r0,r10
        0x00001fac:    ef000300    ....    SVC      #0x300 ; formerly SWI
        0x00001fb0:    e1b08000    ....    MOVS     r8,r0
        0x00001fb4:    1a000022    "...    BNE      0x2044 ; eLIBs_GetDirSize + 224
        0x00001fb8:    e1a01009    ....    MOV      r1,r9
        0x00001fbc:    e3a00000    ....    MOV      r0,#0
        0x00001fc0:    ef000208    ....    SVC      #0x208 ; formerly SWI
        0x00001fc4:    e3e00002    ....    MVN      r0,#2
        0x00001fc8:    e3e01000    ....    MVN      r1,#0
        0x00001fcc:    e8bd87f0    ....    POP      {r4-r10,pc}
        0x00001fd0:    e5d40004    ....    LDRB     r0,[r4,#4]
        0x00001fd4:    e3100010    ....    TST      r0,#0x10
        0x00001fd8:    01c420d8    . ..    LDRDEQ   r2,r3,[r4,#8]
        0x00001fdc:    0a000016    ....    BEQ      0x203c ; eLIBs_GetDirSize + 216
        0x00001fe0:    e5d40010    ....    LDRB     r0,[r4,#0x10]
        0x00001fe4:    e350002e    ..P.    CMP      r0,#0x2e
        0x00001fe8:    0a000015    ....    BEQ      0x2044 ; eLIBs_GetDirSize + 224
        0x00001fec:    e1a0100a    ....    MOV      r1,r10
        0x00001ff0:    e1a00009    ....    MOV      r0,r9
        0x00001ff4:    eb00027a    z...    BL       eLIBs_strcpy ; 0x29e4
        0x00001ff8:    e28f1f49    I...    ADR      r1,{pc}+0x12c ; 0x2124
        0x00001ffc:    e1a00009    ....    MOV      r0,r9
        0x00002000:    eb00027d    }...    BL       eLIBs_strcat ; 0x29fc
        0x00002004:    e2841010    ....    ADD      r1,r4,#0x10
        0x00002008:    e1a00009    ....    MOV      r0,r9
        0x0000200c:    eb00027a    z...    BL       eLIBs_strcat ; 0x29fc
        0x00002010:    e1a00009    ....    MOV      r0,r9
        0x00002014:    ebffffd2    ....    BL       eLIBs_GetDirSize ; 0x1f64
        0x00002018:    e1c700f8    ....    STRD     r0,r1,[r7,#8]
        0x0000201c:    e2500000    ..P.    SUBS     r0,r0,#0
        0x00002020:    e3a03000    .0..    MOV      r3,#0
        0x00002024:    e0d11003    ....    SBCS     r1,r1,r3
        0x00002028:    a1c720d8    . ..    LDRDGE   r2,r3,[r7,#8]
        0x0000202c:    aa000002    ....    BGE      0x203c ; eLIBs_GetDirSize + 216
        0x00002030:    e5975008    .P..    LDR      r5,[r7,#8]
        0x00002034:    e597600c    .`..    LDR      r6,[r7,#0xc]
        0x00002038:    ea000005    ....    B        0x2054 ; eLIBs_GetDirSize + 240
        0x0000203c:    e0955002    .P..    ADDS     r5,r5,r2
        0x00002040:    e0a66003    .`..    ADC      r6,r6,r3
        0x00002044:    e1a00008    ....    MOV      r0,r8
        0x00002048:    ef000302    ....    SVC      #0x302 ; formerly SWI
        0x0000204c:    e1b04000    .@..    MOVS     r4,r0
        0x00002050:    1affffde    ....    BNE      0x1fd0 ; eLIBs_GetDirSize + 108
        0x00002054:    e1a00008    ....    MOV      r0,r8
        0x00002058:    ef000301    ....    SVC      #0x301 ; formerly SWI
        0x0000205c:    e1a01009    ....    MOV      r1,r9
        0x00002060:    e3a00000    ....    MOV      r0,#0
        0x00002064:    ef000208    ....    SVC      #0x208 ; formerly SWI
        0x00002068:    e5970000    ....    LDR      r0,[r7,#0]
        0x0000206c:    e1a01006    ....    MOV      r1,r6
        0x00002070:    e2400001    ..@.    SUB      r0,r0,#1
        0x00002074:    e5870000    ....    STR      r0,[r7,#0]
        0x00002078:    e1a00005    ....    MOV      r0,r5
        0x0000207c:    e8bd87f0    ....    POP      {r4-r10,pc}
    eLIBs_GetFileSize
        0x00002080:    e92d4010    .@-.    PUSH     {r4,lr}
        0x00002084:    e24dd040    @.M.    SUB      sp,sp,#0x40
        0x00002088:    e28f108c    ....    ADR      r1,{pc}+0x94 ; 0x211c
        0x0000208c:    ef000308    ....    SVC      #0x308 ; formerly SWI
        0x00002090:    e1b04000    .@..    MOVS     r4,r0
        0x00002094:    03e00000    ....    MVNEQ    r0,#0
        0x00002098:    0a000005    ....    BEQ      0x20b4 ; eLIBs_GetFileSize + 52
        0x0000209c:    e1a0100d    ....    MOV      r1,sp
        0x000020a0:    e1a00004    ....    MOV      r0,r4
        0x000020a4:    ef00032a    *...    SVC      #0x32a ; formerly SWI
        0x000020a8:    e3500000    ..P.    CMP      r0,#0
        0x000020ac:    0a000003    ....    BEQ      0x20c0 ; eLIBs_GetFileSize + 64
        0x000020b0:    e3e00001    ....    MVN      r0,#1
        0x000020b4:    e3e01000    ....    MVN      r1,#0
        0x000020b8:    e28dd040    @...    ADD      sp,sp,#0x40
        0x000020bc:    e8bd8010    ....    POP      {r4,pc}
        0x000020c0:    e1a00004    ....    MOV      r0,r4
        0x000020c4:    ef000309    ....    SVC      #0x309 ; formerly SWI
        0x000020c8:    e1cd00d8    ....    LDRD     r0,r1,[sp,#8]
        0x000020cc:    eafffff9    ....    B        0x20b8 ; eLIBs_GetFileSize + 56
    eLIBs_format
        0x000020d0:    e92d4010    .@-.    PUSH     {r4,lr}
        0x000020d4:    ef000326    &...    SVC      #0x326 ; formerly SWI
        0x000020d8:    e8bd8010    ....    POP      {r4,pc}
    eLIBs_GetVolName
        0x000020dc:    e92d4010    .@-.    PUSH     {r4,lr}
        0x000020e0:    e24ddf8e    ..M.    SUB      sp,sp,#0x238
        0x000020e4:    e1a04001    .@..    MOV      r4,r1
        0x000020e8:    e28d1004    ....    ADD      r1,sp,#4
        0x000020ec:    e3a02a01    .*..    MOV      r2,#0x1000
        0x000020f0:    ef000327    '...    SVC      #0x327 ; formerly SWI
        0x000020f4:    e3500000    ..P.    CMP      r0,#0
        0x000020f8:    13e00000    ....    MVNNE    r0,#0
        0x000020fc:    1a000004    ....    BNE      0x2114 ; eLIBs_GetVolName + 56
        0x00002100:    e3a02c02    .,..    MOV      r2,#0x200
        0x00002104:    e28d1025    %...    ADD      r1,sp,#0x25
        0x00002108:    e1a00004    ....    MOV      r0,r4
        0x0000210c:    eb000237    7...    BL       eLIBs_strncpy ; 0x29f0
        0x00002110:    e3a00000    ....    MOV      r0,#0
        0x00002114:    e28ddf8e    ....    ADD      sp,sp,#0x238
        0x00002118:    e8bd8010    ....    POP      {r4,pc}
    $d
        0x0000211c:    00006272    rb..    DCD    25202
        0x00002120:    00003218    .2..    DCD    12824
        0x00002124:    0000005c    \...    DCD    92
    $a
    eLIBs_GetVolNameCharset
        0x00002128:    e92d4010    .@-.    PUSH     {r4,lr}
        0x0000212c:    e24ddf8e    ..M.    SUB      sp,sp,#0x238
        0x00002130:    e1a04000    .@..    MOV      r4,r0
        0x00002134:    e3e00000    ....    MVN      r0,#0
        0x00002138:    e58d0234    4...    STR      r0,[sp,#0x234]
        0x0000213c:    e1a00004    ....    MOV      r0,r4
        0x00002140:    e1a0100d    ....    MOV      r1,sp
        0x00002144:    e3a02a01    .*..    MOV      r2,#0x1000
        0x00002148:    ef000327    '...    SVC      #0x327 ; formerly SWI
        0x0000214c:    e3500000    ..P.    CMP      r0,#0
        0x00002150:    1a000007    ....    BNE      0x2174 ; eLIBs_GetVolNameCharset + 76
        0x00002154:    e28d0c02    ....    ADD      r0,sp,#0x200
        0x00002158:    e2800021    !...    ADD      r0,r0,#0x21
        0x0000215c:    e28f1f7f    ....    ADR      r1,{pc}+0x204 ; 0x2360
        0x00002160:    eb00022e    ....    BL       eLIBs_stricmp ; 0x2a20
        0x00002164:    e3500000    ..P.    CMP      r0,#0
        0x00002168:    028d1f8d    ....    ADDEQ    r1,sp,#0x234
        0x0000216c:    01a00004    ....    MOVEQ    r0,r4
        0x00002170:    0f00032d    -...    SVCEQ    #0x32d ; formerly SWI
        0x00002174:    e59d0234    4...    LDR      r0,[sp,#0x234]
        0x00002178:    e28ddf8e    ....    ADD      sp,sp,#0x238
        0x0000217c:    e8bd8010    ....    POP      {r4,pc}
    eLIBs_GetVolTSpace
        0x00002180:    e52de004    ..-.    PUSH     {lr}
        0x00002184:    e24ddf8d    ..M.    SUB      sp,sp,#0x234
        0x00002188:    e1a0100d    ....    MOV      r1,sp
        0x0000218c:    e3a02006    . ..    MOV      r2,#6
        0x00002190:    ef000327    '...    SVC      #0x327 ; formerly SWI
        0x00002194:    e3500000    ..P.    CMP      r0,#0
        0x00002198:    059d0008    ....    LDREQ    r0,[sp,#8]
        0x0000219c:    059d1004    ....    LDREQ    r1,[sp,#4]
        0x000021a0:    e28ddf8d    ....    ADD      sp,sp,#0x234
        0x000021a4:    0081c190    ....    UMULLEQ  r12,r1,r0,r1
        0x000021a8:    01a0000c    ....    MOVEQ    r0,r12
        0x000021ac:    13a00000    ....    MOVNE    r0,#0
        0x000021b0:    13a01000    ....    MOVNE    r1,#0
        0x000021b4:    e49df004    ....    POP      {pc}
    eLIBs_GetVolFSpace
        0x000021b8:    e52de004    ..-.    PUSH     {lr}
        0x000021bc:    e24ddf8d    ..M.    SUB      sp,sp,#0x234
        0x000021c0:    e1a0100d    ....    MOV      r1,sp
        0x000021c4:    e3a0200a    . ..    MOV      r2,#0xa
        0x000021c8:    ef000327    '...    SVC      #0x327 ; formerly SWI
        0x000021cc:    e3500000    ..P.    CMP      r0,#0
        0x000021d0:    059d000c    ....    LDREQ    r0,[sp,#0xc]
        0x000021d4:    059d1004    ....    LDREQ    r1,[sp,#4]
        0x000021d8:    e28ddf8d    ....    ADD      sp,sp,#0x234
        0x000021dc:    0081c190    ....    UMULLEQ  r12,r1,r0,r1
        0x000021e0:    01a0000c    ....    MOVEQ    r0,r12
        0x000021e4:    13a00000    ....    MOVNE    r0,#0
        0x000021e8:    13a01000    ....    MOVNE    r1,#0
        0x000021ec:    e49df004    ....    POP      {pc}
    eLIBs_GetVolClustSize
        0x000021f0:    e52de004    ..-.    PUSH     {lr}
        0x000021f4:    e24ddf8d    ..M.    SUB      sp,sp,#0x234
        0x000021f8:    e1a0100d    ....    MOV      r1,sp
        0x000021fc:    e3a02002    . ..    MOV      r2,#2
        0x00002200:    ef000327    '...    SVC      #0x327 ; formerly SWI
        0x00002204:    e3500000    ..P.    CMP      r0,#0
        0x00002208:    059d0004    ....    LDREQ    r0,[sp,#4]
        0x0000220c:    e28ddf8d    ....    ADD      sp,sp,#0x234
        0x00002210:    13a00000    ....    MOVNE    r0,#0
        0x00002214:    e49df004    ....    POP      {pc}
    eLIBs_GetFSName
        0x00002218:    e92d4010    .@-.    PUSH     {r4,lr}
        0x0000221c:    e24ddf8e    ..M.    SUB      sp,sp,#0x238
        0x00002220:    e1a04001    .@..    MOV      r4,r1
        0x00002224:    e28d1004    ....    ADD      r1,sp,#4
        0x00002228:    e3a02a02    .*..    MOV      r2,#0x2000
        0x0000222c:    ef000327    '...    SVC      #0x327 ; formerly SWI
        0x00002230:    e3500000    ..P.    CMP      r0,#0
        0x00002234:    13e00000    ....    MVNNE    r0,#0
        0x00002238:    1a000005    ....    BNE      0x2254 ; eLIBs_GetFSName + 60
        0x0000223c:    e28d1c02    ....    ADD      r1,sp,#0x200
        0x00002240:    e2811025    %...    ADD      r1,r1,#0x25
        0x00002244:    e3a02010    . ..    MOV      r2,#0x10
        0x00002248:    e1a00004    ....    MOV      r0,r4
        0x0000224c:    eb0001e7    ....    BL       eLIBs_strncpy ; 0x29f0
        0x00002250:    e3a00000    ....    MOV      r0,#0
        0x00002254:    e28ddf8e    ....    ADD      sp,sp,#0x238
        0x00002258:    e8bd8010    ....    POP      {r4,pc}
    eLIBs_GetFSAttribute
        0x0000225c:    e92d4010    .@-.    PUSH     {r4,lr}
        0x00002260:    e24ddf8e    ..M.    SUB      sp,sp,#0x238
        0x00002264:    e1a04001    .@..    MOV      r4,r1
        0x00002268:    e28d1004    ....    ADD      r1,sp,#4
        0x0000226c:    e3a02c02    .,..    MOV      r2,#0x200
        0x00002270:    ef000327    '...    SVC      #0x327 ; formerly SWI
        0x00002274:    e3500000    ..P.    CMP      r0,#0
        0x00002278:    1a000004    ....    BNE      0x2290 ; eLIBs_GetFSAttribute + 52
        0x0000227c:    e3540000    ..T.    CMP      r4,#0
        0x00002280:    159d001c    ....    LDRNE    r0,[sp,#0x1c]
        0x00002284:    15840000    ....    STRNE    r0,[r4,#0]
        0x00002288:    13a00000    ....    MOVNE    r0,#0
        0x0000228c:    1a000000    ....    BNE      0x2294 ; eLIBs_GetFSAttribute + 56
        0x00002290:    e3e00000    ....    MVN      r0,#0
        0x00002294:    e28ddf8e    ....    ADD      sp,sp,#0x238
        0x00002298:    e8bd8010    ....    POP      {r4,pc}
    eLIBs_GetPTName
        0x0000229c:    e92d4010    .@-.    PUSH     {r4,lr}
        0x000022a0:    e24ddf96    ..M.    SUB      sp,sp,#0x258
        0x000022a4:    e1a04001    .@..    MOV      r4,r1
        0x000022a8:    e1a0100d    ....    MOV      r1,sp
        0x000022ac:    ef00032b    +...    SVC      #0x32b ; formerly SWI
        0x000022b0:    e3500000    ..P.    CMP      r0,#0
        0x000022b4:    13e00000    ....    MVNNE    r0,#0
        0x000022b8:    1a000004    ....    BNE      0x22d0 ; eLIBs_GetPTName + 52
        0x000022bc:    e3a02c02    .,..    MOV      r2,#0x200
        0x000022c0:    e28d1011    ....    ADD      r1,sp,#0x11
        0x000022c4:    e1a00004    ....    MOV      r0,r4
        0x000022c8:    eb0001c8    ....    BL       eLIBs_strncpy ; 0x29f0
        0x000022cc:    e3a00000    ....    MOV      r0,#0
        0x000022d0:    e28ddf96    ....    ADD      sp,sp,#0x258
        0x000022d4:    e8bd8010    ....    POP      {r4,pc}
    eLIBs_IsPartFormated
        0x000022d8:    e92d4010    .@-.    PUSH     {r4,lr}
        0x000022dc:    e24dde26    &.M.    SUB      sp,sp,#0x260
        0x000022e0:    e28d1008    ....    ADD      r1,sp,#8
        0x000022e4:    e1a04000    .@..    MOV      r4,r0
        0x000022e8:    ef00032b    +...    SVC      #0x32b ; formerly SWI
        0x000022ec:    e3500000    ..P.    CMP      r0,#0
        0x000022f0:    13e00000    ....    MVNNE    r0,#0
        0x000022f4:    1a000010    ....    BNE      0x233c ; eLIBs_IsPartFormated + 100
        0x000022f8:    e3a02002    . ..    MOV      r2,#2
        0x000022fc:    e1a01004    ....    MOV      r1,r4
        0x00002300:    e28d0004    ....    ADD      r0,sp,#4
        0x00002304:    eb0001b9    ....    BL       eLIBs_strncpy ; 0x29f0
        0x00002308:    e5dd0018    ....    LDRB     r0,[sp,#0x18]
        0x0000230c:    e3500004    ..P.    CMP      r0,#4
        0x00002310:    03e00001    ....    MVNEQ    r0,#1
        0x00002314:    0a000008    ....    BEQ      0x233c ; eLIBs_IsPartFormated + 100
        0x00002318:    e59d0014    ....    LDR      r0,[sp,#0x14]
        0x0000231c:    e3100010    ....    TST      r0,#0x10
        0x00002320:    e28d0004    ....    ADD      r0,sp,#4
        0x00002324:    0a000008    ....    BEQ      0x234c ; eLIBs_IsPartFormated + 116
        0x00002328:    ef000300    ....    SVC      #0x300 ; formerly SWI
        0x0000232c:    e3500000    ..P.    CMP      r0,#0
        0x00002330:    0a000003    ....    BEQ      0x2344 ; eLIBs_IsPartFormated + 108
        0x00002334:    ef000301    ....    SVC      #0x301 ; formerly SWI
        0x00002338:    e3a00001    ....    MOV      r0,#1
        0x0000233c:    e28dde26    &...    ADD      sp,sp,#0x260
        0x00002340:    e8bd8010    ....    POP      {r4,pc}
        0x00002344:    e3e00002    ....    MVN      r0,#2
        0x00002348:    eafffffb    ....    B        0x233c ; eLIBs_IsPartFormated + 100
        0x0000234c:    ef000300    ....    SVC      #0x300 ; formerly SWI
        0x00002350:    e3500000    ..P.    CMP      r0,#0
        0x00002354:    0afffff8    ....    BEQ      0x233c ; eLIBs_IsPartFormated + 100
        0x00002358:    ef000301    ....    SVC      #0x301 ; formerly SWI
        0x0000235c:    eafffff8    ....    B        0x2344 ; eLIBs_IsPartFormated + 108
    $d
        0x00002360:    5346544e    NTFS    DCD    1397118030
        0x00002364:    00000000    ....    DCD    0
    $a
    eLIBs_disklock
        0x00002368:    e92d4010    .@-.    PUSH     {r4,lr}
        0x0000236c:    ef000322    "...    SVC      #0x322 ; formerly SWI
        0x00002370:    e8bd8010    ....    POP      {r4,pc}
    eLIBs_diskunlock
        0x00002374:    e92d4010    .@-.    PUSH     {r4,lr}
        0x00002378:    ef000323    #...    SVC      #0x323 ; formerly SWI
        0x0000237c:    e8bd8010    ....    POP      {r4,pc}
    eLIBs_GetDiskArray
        0x00002380:    e92d40f8    .@-.    PUSH     {r3-r7,lr}
        0x00002384:    e1a05000    .P..    MOV      r5,r0
        0x00002388:    e3a0003a    :...    MOV      r0,#0x3a
        0x0000238c:    e5cd0001    ....    STRB     r0,[sp,#1]
        0x00002390:    e3a0005c    \...    MOV      r0,#0x5c
        0x00002394:    e3a07000    .p..    MOV      r7,#0
        0x00002398:    e5cd0002    ....    STRB     r0,[sp,#2]
        0x0000239c:    e3a04000    .@..    MOV      r4,#0
        0x000023a0:    e5cd7003    .p..    STRB     r7,[sp,#3]
        0x000023a4:    e2840041    A...    ADD      r0,r4,#0x41
        0x000023a8:    e20060ff    .`..    AND      r6,r0,#0xff
        0x000023ac:    e1a0000d    ....    MOV      r0,sp
        0x000023b0:    e5cd6000    .`..    STRB     r6,[sp,#0]
        0x000023b4:    ef000300    ....    SVC      #0x300 ; formerly SWI
        0x000023b8:    e3500000    ..P.    CMP      r0,#0
        0x000023bc:    07c57004    .p..    STRBEQ   r7,[r5,r4]
        0x000023c0:    0a000001    ....    BEQ      0x23cc ; eLIBs_GetDiskArray + 76
        0x000023c4:    ef000301    ....    SVC      #0x301 ; formerly SWI
        0x000023c8:    e7c56004    .`..    STRB     r6,[r5,r4]
        0x000023cc:    e2840001    ....    ADD      r0,r4,#1
        0x000023d0:    e20040ff    .@..    AND      r4,r0,#0xff
        0x000023d4:    e354001a    ..T.    CMP      r4,#0x1a
        0x000023d8:    3afffff1    ...:    BCC      0x23a4 ; eLIBs_GetDiskArray + 36
        0x000023dc:    e3a00000    ....    MOV      r0,#0
        0x000023e0:    e8bd80f8    ....    POP      {r3-r7,pc}
    eLIBs_feof
        0x000023e4:    e52de004    ..-.    PUSH     {lr}
        0x000023e8:    e24dd044    D.M.    SUB      sp,sp,#0x44
        0x000023ec:    e1a0100d    ....    MOV      r1,sp
        0x000023f0:    ef00032a    *...    SVC      #0x32a ; formerly SWI
        0x000023f4:    e1cd01d0    ....    LDRD     r0,r1,[sp,#0x10]
        0x000023f8:    e1cd20d8    . ..    LDRD     r2,r3,[sp,#8]
        0x000023fc:    e28dd044    D...    ADD      sp,sp,#0x44
        0x00002400:    e1510003    ..Q.    CMP      r1,r3
        0x00002404:    01500002    ..P.    CMPEQ    r0,r2
        0x00002408:    03a00001    ....    MOVEQ    r0,#1
        0x0000240c:    13a00000    ....    MOVNE    r0,#0
        0x00002410:    e49df004    ....    POP      {pc}
    eLIBs_fgetc
        0x00002414:    e92d4008    .@-.    PUSH     {r3,lr}
        0x00002418:    e1a03000    .0..    MOV      r3,r0
        0x0000241c:    e1a0000d    ....    MOV      r0,sp
        0x00002420:    e3a02001    . ..    MOV      r2,#1
        0x00002424:    e3a01001    ....    MOV      r1,#1
        0x00002428:    ef00030a    ....    SVC      #0x30a ; formerly SWI
        0x0000242c:    e3500001    ..P.    CMP      r0,#1
        0x00002430:    05dd0000    ....    LDRBEQ   r0,[sp,#0]
        0x00002434:    13e00000    ....    MVNNE    r0,#0
        0x00002438:    e8bd9000    ....    POP      {r12,pc}
    eLIBs_fgets
        0x0000243c:    e92d40f8    .@-.    PUSH     {r3-r7,lr}
        0x00002440:    e2515000    .PQ.    SUBS     r5,r1,#0
        0x00002444:    e1a07002    .p..    MOV      r7,r2
        0x00002448:    e1a06000    .`..    MOV      r6,r0
        0x0000244c:    da000015    ....    BLE      0x24a8 ; eLIBs_fgets + 108
        0x00002450:    e3560000    ..V.    CMP      r6,#0
        0x00002454:    0a000013    ....    BEQ      0x24a8 ; eLIBs_fgets + 108
        0x00002458:    e1a04006    .@..    MOV      r4,r6
        0x0000245c:    ea00000a    ....    B        0x248c ; eLIBs_fgets + 80
        0x00002460:    e1a03007    .0..    MOV      r3,r7
        0x00002464:    e3a02001    . ..    MOV      r2,#1
        0x00002468:    e3a01001    ....    MOV      r1,#1
        0x0000246c:    e1a0000d    ....    MOV      r0,sp
        0x00002470:    ef00030a    ....    SVC      #0x30a ; formerly SWI
        0x00002474:    e3500001    ..P.    CMP      r0,#1
        0x00002478:    1a000005    ....    BNE      0x2494 ; eLIBs_fgets + 88
        0x0000247c:    e5dd0000    ....    LDRB     r0,[sp,#0]
        0x00002480:    e350000a    ..P.    CMP      r0,#0xa
        0x00002484:    e4c40001    ....    STRB     r0,[r4],#1
        0x00002488:    0a000001    ....    BEQ      0x2494 ; eLIBs_fgets + 88
        0x0000248c:    e2555001    .PU.    SUBS     r5,r5,#1
        0x00002490:    1afffff2    ....    BNE      0x2460 ; eLIBs_fgets + 36
        0x00002494:    e1540006    ..T.    CMP      r4,r6
        0x00002498:    83a00000    ....    MOVHI    r0,#0
        0x0000249c:    85c40000    ....    STRBHI   r0,[r4,#0]
        0x000024a0:    81a00006    ....    MOVHI    r0,r6
        0x000024a4:    8a000000    ....    BHI      0x24ac ; eLIBs_fgets + 112
        0x000024a8:    e3a00000    ....    MOV      r0,#0
        0x000024ac:    e8bd80f8    ....    POP      {r3-r7,pc}
    eLIBs_fputc
        0x000024b0:    e92d4038    8@-.    PUSH     {r3-r5,lr}
        0x000024b4:    e1a04000    .@..    MOV      r4,r0
        0x000024b8:    e1a03001    .0..    MOV      r3,r1
        0x000024bc:    e58d0000    ....    STR      r0,[sp,#0]
        0x000024c0:    e1a0000d    ....    MOV      r0,sp
        0x000024c4:    e3a01001    ....    MOV      r1,#1
        0x000024c8:    e3a02001    . ..    MOV      r2,#1
        0x000024cc:    ef00030b    ....    SVC      #0x30b ; formerly SWI
        0x000024d0:    e3500001    ..P.    CMP      r0,#1
        0x000024d4:    13e00000    ....    MVNNE    r0,#0
        0x000024d8:    01a00004    ....    MOVEQ    r0,r4
        0x000024dc:    e8bd8038    8...    POP      {r3-r5,pc}
    eLIBs_fputs
        0x000024e0:    e92d4070    p@-.    PUSH     {r4-r6,lr}
        0x000024e4:    e1a06000    .`..    MOV      r6,r0
        0x000024e8:    e1a05001    .P..    MOV      r5,r1
        0x000024ec:    eb000139    9...    BL       eLIBs_strlen ; 0x29d8
        0x000024f0:    e1a04000    .@..    MOV      r4,r0
        0x000024f4:    e1a02000    . ..    MOV      r2,r0
        0x000024f8:    e1a00006    ....    MOV      r0,r6
        0x000024fc:    e1a03005    .0..    MOV      r3,r5
        0x00002500:    e3a01001    ....    MOV      r1,#1
        0x00002504:    ef00030b    ....    SVC      #0x30b ; formerly SWI
        0x00002508:    e1500004    ..P.    CMP      r0,r4
        0x0000250c:    13e00000    ....    MVNNE    r0,#0
        0x00002510:    01a00004    ....    MOVEQ    r0,r4
        0x00002514:    e8bd8070    p...    POP      {r4-r6,pc}
    eLIBs_GetFileATime
        0x00002518:    e92d4030    0@-.    PUSH     {r4,r5,lr}
        0x0000251c:    e1a04001    .@..    MOV      r4,r1
        0x00002520:    e28f1f7f    ....    ADR      r1,{pc}+0x204 ; 0x2724
        0x00002524:    e24dd044    D.M.    SUB      sp,sp,#0x44
        0x00002528:    ef000308    ....    SVC      #0x308 ; formerly SWI
        0x0000252c:    e1b05000    .P..    MOVS     r5,r0
        0x00002530:    0a000004    ....    BEQ      0x2548 ; eLIBs_GetFileATime + 48
        0x00002534:    e1a0100d    ....    MOV      r1,sp
        0x00002538:    e1a00005    ....    MOV      r0,r5
        0x0000253c:    ef00032a    *...    SVC      #0x32a ; formerly SWI
        0x00002540:    e3500000    ..P.    CMP      r0,#0
        0x00002544:    0a000002    ....    BEQ      0x2554 ; eLIBs_GetFileATime + 60
        0x00002548:    e3e00000    ....    MVN      r0,#0
        0x0000254c:    e28dd044    D...    ADD      sp,sp,#0x44
        0x00002550:    e8bd8030    0...    POP      {r4,r5,pc}
        0x00002554:    e1dd01b8    ....    LDRH     r0,[sp,#0x18]
        0x00002558:    e1c400b0    ....    STRH     r0,[r4,#0]
        0x0000255c:    e5dd001a    ....    LDRB     r0,[sp,#0x1a]
        0x00002560:    e5c40002    ....    STRB     r0,[r4,#2]
        0x00002564:    e5dd001b    ....    LDRB     r0,[sp,#0x1b]
        0x00002568:    e5c40003    ....    STRB     r0,[r4,#3]
        0x0000256c:    e5dd001c    ....    LDRB     r0,[sp,#0x1c]
        0x00002570:    e5c40004    ....    STRB     r0,[r4,#4]
        0x00002574:    e5dd001d    ....    LDRB     r0,[sp,#0x1d]
        0x00002578:    e5c40005    ....    STRB     r0,[r4,#5]
        0x0000257c:    e5dd001e    ....    LDRB     r0,[sp,#0x1e]
        0x00002580:    e5c40006    ....    STRB     r0,[r4,#6]
        0x00002584:    e5dd001f    ....    LDRB     r0,[sp,#0x1f]
        0x00002588:    e5c40007    ....    STRB     r0,[r4,#7]
        0x0000258c:    e1a00005    ....    MOV      r0,r5
        0x00002590:    ef000309    ....    SVC      #0x309 ; formerly SWI
        0x00002594:    e3a00000    ....    MOV      r0,#0
        0x00002598:    eaffffeb    ....    B        0x254c ; eLIBs_GetFileATime + 52
    eLIBs_GetFileMTime
        0x0000259c:    e92d4030    0@-.    PUSH     {r4,r5,lr}
        0x000025a0:    e1a04001    .@..    MOV      r4,r1
        0x000025a4:    e28f1f5e    ^...    ADR      r1,{pc}+0x180 ; 0x2724
        0x000025a8:    e24dd044    D.M.    SUB      sp,sp,#0x44
        0x000025ac:    ef000308    ....    SVC      #0x308 ; formerly SWI
        0x000025b0:    e1b05000    .P..    MOVS     r5,r0
        0x000025b4:    0a000004    ....    BEQ      0x25cc ; eLIBs_GetFileMTime + 48
        0x000025b8:    e1a0100d    ....    MOV      r1,sp
        0x000025bc:    e1a00005    ....    MOV      r0,r5
        0x000025c0:    ef00032a    *...    SVC      #0x32a ; formerly SWI
        0x000025c4:    e3500000    ..P.    CMP      r0,#0
        0x000025c8:    0a000002    ....    BEQ      0x25d8 ; eLIBs_GetFileMTime + 60
        0x000025cc:    e3e00000    ....    MVN      r0,#0
        0x000025d0:    e28dd044    D...    ADD      sp,sp,#0x44
        0x000025d4:    e8bd8030    0...    POP      {r4,r5,pc}
        0x000025d8:    e1dd02b0    ....    LDRH     r0,[sp,#0x20]
        0x000025dc:    e1c400b0    ....    STRH     r0,[r4,#0]
        0x000025e0:    e5dd0022    "...    LDRB     r0,[sp,#0x22]
        0x000025e4:    e5c40002    ....    STRB     r0,[r4,#2]
        0x000025e8:    e5dd0023    #...    LDRB     r0,[sp,#0x23]
        0x000025ec:    e5c40003    ....    STRB     r0,[r4,#3]
        0x000025f0:    e5dd0024    $...    LDRB     r0,[sp,#0x24]
        0x000025f4:    e5c40004    ....    STRB     r0,[r4,#4]
        0x000025f8:    e5dd0025    %...    LDRB     r0,[sp,#0x25]
        0x000025fc:    e5c40005    ....    STRB     r0,[r4,#5]
        0x00002600:    e5dd0026    &...    LDRB     r0,[sp,#0x26]
        0x00002604:    e5c40006    ....    STRB     r0,[r4,#6]
        0x00002608:    e5dd0027    '...    LDRB     r0,[sp,#0x27]
        0x0000260c:    e5c40007    ....    STRB     r0,[r4,#7]
        0x00002610:    e1a00005    ....    MOV      r0,r5
        0x00002614:    ef000309    ....    SVC      #0x309 ; formerly SWI
        0x00002618:    e3a00000    ....    MOV      r0,#0
        0x0000261c:    eaffffeb    ....    B        0x25d0 ; eLIBs_GetFileMTime + 52
    eLIBs_GetFileCTime
        0x00002620:    e92d4030    0@-.    PUSH     {r4,r5,lr}
        0x00002624:    e1a04001    .@..    MOV      r4,r1
        0x00002628:    e28f10f4    ....    ADR      r1,{pc}+0xfc ; 0x2724
        0x0000262c:    e24dd044    D.M.    SUB      sp,sp,#0x44
        0x00002630:    ef000308    ....    SVC      #0x308 ; formerly SWI
        0x00002634:    e1b05000    .P..    MOVS     r5,r0
        0x00002638:    0a000004    ....    BEQ      0x2650 ; eLIBs_GetFileCTime + 48
        0x0000263c:    e1a0100d    ....    MOV      r1,sp
        0x00002640:    e1a00005    ....    MOV      r0,r5
        0x00002644:    ef00032a    *...    SVC      #0x32a ; formerly SWI
        0x00002648:    e3500000    ..P.    CMP      r0,#0
        0x0000264c:    0a000002    ....    BEQ      0x265c ; eLIBs_GetFileCTime + 60
        0x00002650:    e3e00000    ....    MVN      r0,#0
        0x00002654:    e28dd044    D...    ADD      sp,sp,#0x44
        0x00002658:    e8bd8030    0...    POP      {r4,r5,pc}
        0x0000265c:    e1dd02b8    ....    LDRH     r0,[sp,#0x28]
        0x00002660:    e1c400b0    ....    STRH     r0,[r4,#0]
        0x00002664:    e5dd002a    *...    LDRB     r0,[sp,#0x2a]
        0x00002668:    e5c40002    ....    STRB     r0,[r4,#2]
        0x0000266c:    e5dd002b    +...    LDRB     r0,[sp,#0x2b]
        0x00002670:    e5c40003    ....    STRB     r0,[r4,#3]
        0x00002674:    e5dd002c    ,...    LDRB     r0,[sp,#0x2c]
        0x00002678:    e5c40004    ....    STRB     r0,[r4,#4]
        0x0000267c:    e5dd002d    -...    LDRB     r0,[sp,#0x2d]
        0x00002680:    e5c40005    ....    STRB     r0,[r4,#5]
        0x00002684:    e5dd002e    ....    LDRB     r0,[sp,#0x2e]
        0x00002688:    e5c40006    ....    STRB     r0,[r4,#6]
        0x0000268c:    e5dd002f    /...    LDRB     r0,[sp,#0x2f]
        0x00002690:    e5c40007    ....    STRB     r0,[r4,#7]
        0x00002694:    e1a00005    ....    MOV      r0,r5
        0x00002698:    ef000309    ....    SVC      #0x309 ; formerly SWI
        0x0000269c:    e3a00000    ....    MOV      r0,#0
        0x000026a0:    eaffffeb    ....    B        0x2654 ; eLIBs_GetFileCTime + 52
    eLIBs_GetDirATime
        0x000026a4:    e92d4030    0@-.    PUSH     {r4,r5,lr}
        0x000026a8:    e24dd044    D.M.    SUB      sp,sp,#0x44
        0x000026ac:    e1a04001    .@..    MOV      r4,r1
        0x000026b0:    ef000300    ....    SVC      #0x300 ; formerly SWI
        0x000026b4:    e1b05000    .P..    MOVS     r5,r0
        0x000026b8:    0a000004    ....    BEQ      0x26d0 ; eLIBs_GetDirATime + 44
        0x000026bc:    e1a0100d    ....    MOV      r1,sp
        0x000026c0:    e1a00005    ....    MOV      r0,r5
        0x000026c4:    ef00032a    *...    SVC      #0x32a ; formerly SWI
        0x000026c8:    e3500000    ..P.    CMP      r0,#0
        0x000026cc:    0a000002    ....    BEQ      0x26dc ; eLIBs_GetDirATime + 56
        0x000026d0:    e3e00000    ....    MVN      r0,#0
        0x000026d4:    e28dd044    D...    ADD      sp,sp,#0x44
        0x000026d8:    e8bd8030    0...    POP      {r4,r5,pc}
        0x000026dc:    e1dd01b8    ....    LDRH     r0,[sp,#0x18]
        0x000026e0:    e1c400b0    ....    STRH     r0,[r4,#0]
        0x000026e4:    e5dd001a    ....    LDRB     r0,[sp,#0x1a]
        0x000026e8:    e5c40002    ....    STRB     r0,[r4,#2]
        0x000026ec:    e5dd001b    ....    LDRB     r0,[sp,#0x1b]
        0x000026f0:    e5c40003    ....    STRB     r0,[r4,#3]
        0x000026f4:    e5dd001c    ....    LDRB     r0,[sp,#0x1c]
        0x000026f8:    e5c40004    ....    STRB     r0,[r4,#4]
        0x000026fc:    e5dd001d    ....    LDRB     r0,[sp,#0x1d]
        0x00002700:    e5c40005    ....    STRB     r0,[r4,#5]
        0x00002704:    e5dd001e    ....    LDRB     r0,[sp,#0x1e]
        0x00002708:    e5c40006    ....    STRB     r0,[r4,#6]
        0x0000270c:    e5dd001f    ....    LDRB     r0,[sp,#0x1f]
        0x00002710:    e5c40007    ....    STRB     r0,[r4,#7]
        0x00002714:    e1a00005    ....    MOV      r0,r5
        0x00002718:    ef000301    ....    SVC      #0x301 ; formerly SWI
        0x0000271c:    e3a00000    ....    MOV      r0,#0
        0x00002720:    eaffffeb    ....    B        0x26d4 ; eLIBs_GetDirATime + 48
    $d
        0x00002724:    00006272    rb..    DCD    25202
    $a
    eLIBs_GetDirMTime
        0x00002728:    e92d4030    0@-.    PUSH     {r4,r5,lr}
        0x0000272c:    e24dd044    D.M.    SUB      sp,sp,#0x44
        0x00002730:    e1a04001    .@..    MOV      r4,r1
        0x00002734:    ef000300    ....    SVC      #0x300 ; formerly SWI
        0x00002738:    e1b05000    .P..    MOVS     r5,r0
        0x0000273c:    0a000004    ....    BEQ      0x2754 ; eLIBs_GetDirMTime + 44
        0x00002740:    e1a0100d    ....    MOV      r1,sp
        0x00002744:    e1a00005    ....    MOV      r0,r5
        0x00002748:    ef00032a    *...    SVC      #0x32a ; formerly SWI
        0x0000274c:    e3500000    ..P.    CMP      r0,#0
        0x00002750:    0a000002    ....    BEQ      0x2760 ; eLIBs_GetDirMTime + 56
        0x00002754:    e3e00000    ....    MVN      r0,#0
        0x00002758:    e28dd044    D...    ADD      sp,sp,#0x44
        0x0000275c:    e8bd8030    0...    POP      {r4,r5,pc}
        0x00002760:    e1dd02b0    ....    LDRH     r0,[sp,#0x20]
        0x00002764:    e1c400b0    ....    STRH     r0,[r4,#0]
        0x00002768:    e5dd0022    "...    LDRB     r0,[sp,#0x22]
        0x0000276c:    e5c40002    ....    STRB     r0,[r4,#2]
        0x00002770:    e5dd0023    #...    LDRB     r0,[sp,#0x23]
        0x00002774:    e5c40003    ....    STRB     r0,[r4,#3]
        0x00002778:    e5dd0024    $...    LDRB     r0,[sp,#0x24]
        0x0000277c:    e5c40004    ....    STRB     r0,[r4,#4]
        0x00002780:    e5dd0025    %...    LDRB     r0,[sp,#0x25]
        0x00002784:    e5c40005    ....    STRB     r0,[r4,#5]
        0x00002788:    e5dd0026    &...    LDRB     r0,[sp,#0x26]
        0x0000278c:    e5c40006    ....    STRB     r0,[r4,#6]
        0x00002790:    e5dd0027    '...    LDRB     r0,[sp,#0x27]
        0x00002794:    e5c40007    ....    STRB     r0,[r4,#7]
        0x00002798:    e1a00005    ....    MOV      r0,r5
        0x0000279c:    ef000301    ....    SVC      #0x301 ; formerly SWI
        0x000027a0:    e3a00000    ....    MOV      r0,#0
        0x000027a4:    eaffffeb    ....    B        0x2758 ; eLIBs_GetDirMTime + 48
    eLIBs_GetDirCTime
        0x000027a8:    e92d4030    0@-.    PUSH     {r4,r5,lr}
        0x000027ac:    e24dd044    D.M.    SUB      sp,sp,#0x44
        0x000027b0:    e1a04001    .@..    MOV      r4,r1
        0x000027b4:    ef000300    ....    SVC      #0x300 ; formerly SWI
        0x000027b8:    e1b05000    .P..    MOVS     r5,r0
        0x000027bc:    0a000004    ....    BEQ      0x27d4 ; eLIBs_GetDirCTime + 44
        0x000027c0:    e1a0100d    ....    MOV      r1,sp
        0x000027c4:    e1a00005    ....    MOV      r0,r5
        0x000027c8:    ef00032a    *...    SVC      #0x32a ; formerly SWI
        0x000027cc:    e3500000    ..P.    CMP      r0,#0
        0x000027d0:    0a000002    ....    BEQ      0x27e0 ; eLIBs_GetDirCTime + 56
        0x000027d4:    e3e00000    ....    MVN      r0,#0
        0x000027d8:    e28dd044    D...    ADD      sp,sp,#0x44
        0x000027dc:    e8bd8030    0...    POP      {r4,r5,pc}
        0x000027e0:    e1dd02b8    ....    LDRH     r0,[sp,#0x28]
        0x000027e4:    e1c400b0    ....    STRH     r0,[r4,#0]
        0x000027e8:    e5dd002a    *...    LDRB     r0,[sp,#0x2a]
        0x000027ec:    e5c40002    ....    STRB     r0,[r4,#2]
        0x000027f0:    e5dd002b    +...    LDRB     r0,[sp,#0x2b]
        0x000027f4:    e5c40003    ....    STRB     r0,[r4,#3]
        0x000027f8:    e5dd002c    ,...    LDRB     r0,[sp,#0x2c]
        0x000027fc:    e5c40004    ....    STRB     r0,[r4,#4]
        0x00002800:    e5dd002d    -...    LDRB     r0,[sp,#0x2d]
        0x00002804:    e5c40005    ....    STRB     r0,[r4,#5]
        0x00002808:    e5dd002e    ....    LDRB     r0,[sp,#0x2e]
        0x0000280c:    e5c40006    ....    STRB     r0,[r4,#6]
        0x00002810:    e5dd002f    /...    LDRB     r0,[sp,#0x2f]
        0x00002814:    e5c40007    ....    STRB     r0,[r4,#7]
        0x00002818:    e1a00005    ....    MOV      r0,r5
        0x0000281c:    ef000301    ....    SVC      #0x301 ; formerly SWI
        0x00002820:    e3a00000    ....    MOV      r0,#0
        0x00002824:    eaffffeb    ....    B        0x27d8 ; eLIBs_GetDirCTime + 48
    eLIBs_GetFSCharset
        0x00002828:    e3500000    ..P.    CMP      r0,#0
        0x0000282c:    13510000    ..Q.    CMPNE    r1,#0
        0x00002830:    03e00000    ....    MVNEQ    r0,#0
        0x00002834:    e92d4010    .@-.    PUSH     {r4,lr}
        0x00002838:    08bd8010    ....    POPEQ    {r4,pc}
        0x0000283c:    ef00032d    -...    SVC      #0x32d ; formerly SWI
        0x00002840:    e8bd8010    ....    POP      {r4,pc}
    eLIBs_file2fd
        0x00002844:    e92d4010    .@-.    PUSH     {r4,lr}
        0x00002848:    ef00032e    ....    SVC      #0x32e ; formerly SWI
        0x0000284c:    e8bd8010    ....    POP      {r4,pc}
    eLIBs_fd2file
        0x00002850:    e92d4010    .@-.    PUSH     {r4,lr}
        0x00002854:    ef00032f    /...    SVC      #0x32f ; formerly SWI
        0x00002858:    e8bd8010    ....    POP      {r4,pc}
    eLIBs_open
        0x0000285c:    e92d4010    .@-.    PUSH     {r4,lr}
        0x00002860:    ef000330    0...    SVC      #0x330 ; formerly SWI
        0x00002864:    e8bd8010    ....    POP      {r4,pc}
    eLIBs_fstat
        0x00002868:    e92d4010    .@-.    PUSH     {r4,lr}
        0x0000286c:    ef00032a    *...    SVC      #0x32a ; formerly SWI
        0x00002870:    e8bd8010    ....    POP      {r4,pc}
    eLIBs_statfs
        0x00002874:    e59f2154    T!..    LDR      r2,[pc,#340] ; [0x29d0] = 0xffff
        0x00002878:    e92d4010    .@-.    PUSH     {r4,lr}
        0x0000287c:    ef000327    '...    SVC      #0x327 ; formerly SWI
        0x00002880:    e8bd8010    ....    POP      {r4,pc}
    eLIBs_vprintf
        0x00002884:    e1a03001    .0..    MOV      r3,r1
        0x00002888:    e1a02000    . ..    MOV      r2,r0
        0x0000288c:    e92d4010    .@-.    PUSH     {r4,lr}
        0x00002890:    e59f013c    <...    LDR      r0,[pc,#316] ; [0x29d4] = 0x3228
        0x00002894:    e3a01b01    ....    MOV      r1,#0x400
        0x00002898:    eb0000af    ....    BL       eLIBs_vscnprintf ; 0x2b5c
        0x0000289c:    e1a04000    .@..    MOV      r4,r0
        0x000028a0:    e59f012c    ,...    LDR      r0,[pc,#300] ; [0x29d4] = 0x3228
        0x000028a4:    ef000003    ....    SVC      #0x3 ; formerly SWI
        0x000028a8:    e1a00004    ....    MOV      r0,r4
        0x000028ac:    e8bd8010    ....    POP      {r4,pc}
    eLIBs_printf
        0x000028b0:    e92d000f    ..-.    PUSH     {r0-r3}
        0x000028b4:    e92d4010    .@-.    PUSH     {r4,lr}
        0x000028b8:    e59d0008    ....    LDR      r0,[sp,#8]
        0x000028bc:    e28d100c    ....    ADD      r1,sp,#0xc
        0x000028c0:    ebffffef    ....    BL       eLIBs_vprintf ; 0x2884
        0x000028c4:    e49d4004    .@..    POP      {r4}
        0x000028c8:    e49df014    ....    LDR      pc,[sp],#0x14
    eLIBs_GetDevName
        0x000028cc:    e92d4030    0@-.    PUSH     {r4,r5,lr}
        0x000028d0:    e3500000    ..P.    CMP      r0,#0
        0x000028d4:    e1a04001    .@..    MOV      r4,r1
        0x000028d8:    13540000    ..T.    CMPNE    r4,#0
        0x000028dc:    e24ddf97    ..M.    SUB      sp,sp,#0x25c
        0x000028e0:    e1a05002    .P..    MOV      r5,r2
        0x000028e4:    0a00000b    ....    BEQ      0x2918 ; eLIBs_GetDevName + 76
        0x000028e8:    e28d1004    ....    ADD      r1,sp,#4
        0x000028ec:    ef00032b    +...    SVC      #0x32b ; formerly SWI
        0x000028f0:    e3500000    ..P.    CMP      r0,#0
        0x000028f4:    1a000007    ....    BNE      0x2918 ; eLIBs_GetDevName + 76
        0x000028f8:    e28d1c02    ....    ADD      r1,sp,#0x200
        0x000028fc:    e2811015    ....    ADD      r1,r1,#0x15
        0x00002900:    e1a02005    . ..    MOV      r2,r5
        0x00002904:    e1a00004    ....    MOV      r0,r4
        0x00002908:    eb000038    8...    BL       eLIBs_strncpy ; 0x29f0
        0x0000290c:    e3a00000    ....    MOV      r0,#0
        0x00002910:    e28ddf97    ....    ADD      sp,sp,#0x25c
        0x00002914:    e8bd8030    0...    POP      {r4,r5,pc}
        0x00002918:    e3e00000    ....    MVN      r0,#0
        0x0000291c:    eafffffb    ....    B        0x2910 ; eLIBs_GetDevName + 68
    eLIBs_GetDevParts
        0x00002920:    e92d43f0    .C-.    PUSH     {r4-r9,lr}
        0x00002924:    e1a09000    ....    MOV      r9,r0
        0x00002928:    e3a0003a    :...    MOV      r0,#0x3a
        0x0000292c:    e24dd024    $.M.    SUB      sp,sp,#0x24
        0x00002930:    e5cd0021    !...    STRB     r0,[sp,#0x21]
        0x00002934:    e3a0005c    \...    MOV      r0,#0x5c
        0x00002938:    e3a08000    ....    MOV      r8,#0
        0x0000293c:    e5cd0022    "...    STRB     r0,[sp,#0x22]
        0x00002940:    e1a07001    .p..    MOV      r7,r1
        0x00002944:    e3a05000    .P..    MOV      r5,#0
        0x00002948:    e3a04000    .@..    MOV      r4,#0
        0x0000294c:    e5cd8023    #...    STRB     r8,[sp,#0x23]
        0x00002950:    e2840041    A...    ADD      r0,r4,#0x41
        0x00002954:    e20060ff    .`..    AND      r6,r0,#0xff
        0x00002958:    e28d0020     ...    ADD      r0,sp,#0x20
        0x0000295c:    e5cd6020     `..    STRB     r6,[sp,#0x20]
        0x00002960:    ef000300    ....    SVC      #0x300 ; formerly SWI
        0x00002964:    e3500000    ..P.    CMP      r0,#0
        0x00002968:    0a00000b    ....    BEQ      0x299c ; eLIBs_GetDevParts + 124
        0x0000296c:    ef000301    ....    SVC      #0x301 ; formerly SWI
        0x00002970:    e3a02020      ..    MOV      r2,#0x20
        0x00002974:    e1a0100d    ....    MOV      r1,sp
        0x00002978:    e28d0020     ...    ADD      r0,sp,#0x20
        0x0000297c:    ebffffd2    ....    BL       eLIBs_GetDevName ; 0x28cc
        0x00002980:    e1a0100d    ....    MOV      r1,sp
        0x00002984:    e1a00009    ....    MOV      r0,r9
        0x00002988:    eb000021    !...    BL       eLIBs_strcmp ; 0x2a14
        0x0000298c:    e3500000    ..P.    CMP      r0,#0
        0x00002990:    01a00005    ....    MOVEQ    r0,r5
        0x00002994:    02855001    .P..    ADDEQ    r5,r5,#1
        0x00002998:    07c76000    .`..    STRBEQ   r6,[r7,r0]
        0x0000299c:    e2844001    .@..    ADD      r4,r4,#1
        0x000029a0:    e354001a    ..T.    CMP      r4,#0x1a
        0x000029a4:    3affffe9    ...:    BCC      0x2950 ; eLIBs_GetDevParts + 48
        0x000029a8:    e7c78005    ....    STRB     r8,[r7,r5]
        0x000029ac:    e28dd024    $...    ADD      sp,sp,#0x24
        0x000029b0:    e3a00000    ....    MOV      r0,#0
        0x000029b4:    e8bd83f0    ....    POP      {r4-r9,pc}
    eLIBs_GetTime
        0x000029b8:    e92d4010    .@-.    PUSH     {r4,lr}
        0x000029bc:    ef000905    ....    SVC      #0x905 ; formerly SWI
        0x000029c0:    e8bd8010    ....    POP      {r4,pc}
    eLIBs_GetDate
        0x000029c4:    e92d4010    .@-.    PUSH     {r4,lr}
        0x000029c8:    ef000907    ....    SVC      #0x907 ; formerly SWI
        0x000029cc:    e8bd8010    ....    POP      {r4,pc}
    $d
        0x000029d0:    0000ffff    ....    DCD    65535
        0x000029d4:    00003228    (2..    DCD    12840
    $a
    .text
    eLIBs_strlen
        0x000029d8:    e59f10dc    ....    LDR      r1,[pc,#220] ; [0x2abc] = 0xe8700000
        0x000029dc:    e591101c    ....    LDR      r1,[r1,#0x1c]
    $p
        0x000029e0:    e12fff11    ../.    BX       r1
    eLIBs_strcpy
        0x000029e4:    e59f20d0    . ..    LDR      r2,[pc,#208] ; [0x2abc] = 0xe8700000
        0x000029e8:    e5922020      ..    LDR      r2,[r2,#0x20]
    $p
        0x000029ec:    e12fff12    ../.    BX       r2
    eLIBs_strncpy
        0x000029f0:    e59f30c4    .0..    LDR      r3,[pc,#196] ; [0x2abc] = 0xe8700000
        0x000029f4:    e5933024    $0..    LDR      r3,[r3,#0x24]
    $p
        0x000029f8:    e12fff13    ../.    BX       r3
    eLIBs_strcat
        0x000029fc:    e59f20b8    . ..    LDR      r2,[pc,#184] ; [0x2abc] = 0xe8700000
        0x00002a00:    e5922028    ( ..    LDR      r2,[r2,#0x28]
    $p
        0x00002a04:    e12fff12    ../.    BX       r2
    eLIBs_strncat
        0x00002a08:    e59f30ac    .0..    LDR      r3,[pc,#172] ; [0x2abc] = 0xe8700000
        0x00002a0c:    e593302c    ,0..    LDR      r3,[r3,#0x2c]
    $p
        0x00002a10:    e12fff13    ../.    BX       r3
    eLIBs_strcmp
        0x00002a14:    e59f20a0    . ..    LDR      r2,[pc,#160] ; [0x2abc] = 0xe8700000
        0x00002a18:    e5922030    0 ..    LDR      r2,[r2,#0x30]
    $p
        0x00002a1c:    e12fff12    ../.    BX       r2
    eLIBs_stricmp
        0x00002a20:    e59f2094    . ..    LDR      r2,[pc,#148] ; [0x2abc] = 0xe8700000
        0x00002a24:    e5922034    4 ..    LDR      r2,[r2,#0x34]
    $p
        0x00002a28:    e12fff12    ../.    BX       r2
    eLIBs_strncmp
        0x00002a2c:    e59f3088    .0..    LDR      r3,[pc,#136] ; [0x2abc] = 0xe8700000
        0x00002a30:    e5933038    80..    LDR      r3,[r3,#0x38]
    $p
        0x00002a34:    e12fff13    ../.    BX       r3
    eLIBs_strnicmp
        0x00002a38:    e59f307c    |0..    LDR      r3,[pc,#124] ; [0x2abc] = 0xe8700000
        0x00002a3c:    e593303c    <0..    LDR      r3,[r3,#0x3c]
    $p
        0x00002a40:    e12fff13    ../.    BX       r3
    eLIBs_strchr
        0x00002a44:    e59f2070    p ..    LDR      r2,[pc,#112] ; [0x2abc] = 0xe8700000
        0x00002a48:    e5922040    @ ..    LDR      r2,[r2,#0x40]
    $p
        0x00002a4c:    e12fff12    ../.    BX       r2
    eLIBs_strnchr
        0x00002a50:    e59f3064    d0..    LDR      r3,[pc,#100] ; [0x2abc] = 0xe8700000
        0x00002a54:    e5933044    D0..    LDR      r3,[r3,#0x44]
    $p
        0x00002a58:    e12fff13    ../.    BX       r3
    eLIBs_strchrlast
        0x00002a5c:    e59f2058    X ..    LDR      r2,[pc,#88] ; [0x2abc] = 0xe8700000
        0x00002a60:    e5922048    H ..    LDR      r2,[r2,#0x48]
    $p
        0x00002a64:    e12fff12    ../.    BX       r2
    eLIBs_strstr
        0x00002a68:    e59f204c    L ..    LDR      r2,[pc,#76] ; [0x2abc] = 0xe8700000
        0x00002a6c:    e592204c    L ..    LDR      r2,[r2,#0x4c]
    $p
        0x00002a70:    e12fff12    ../.    BX       r2
    eLIBs_memclr
        0x00002a74:    e59f2040    @ ..    LDR      r2,[pc,#64] ; [0x2abc] = 0xe8700000
        0x00002a78:    e5923054    T0..    LDR      r3,[r2,#0x54]
        0x00002a7c:    e1a02001    . ..    MOV      r2,r1
        0x00002a80:    e3a01000    ....    MOV      r1,#0
    $p
        0x00002a84:    e12fff13    ../.    BX       r3
    eLIBs_memset
        0x00002a88:    e59f302c    ,0..    LDR      r3,[pc,#44] ; [0x2abc] = 0xe8700000
        0x00002a8c:    e5933054    T0..    LDR      r3,[r3,#0x54]
    $p
        0x00002a90:    e12fff13    ../.    BX       r3
    eLIBs_memcpy
        0x00002a94:    e59f3020     0..    LDR      r3,[pc,#32] ; [0x2abc] = 0xe8700000
        0x00002a98:    e5933058    X0..    LDR      r3,[r3,#0x58]
    $p
        0x00002a9c:    e12fff13    ../.    BX       r3
    eLIBs_memcmp
        0x00002aa0:    e59f3014    .0..    LDR      r3,[pc,#20] ; [0x2abc] = 0xe8700000
        0x00002aa4:    e92d4010    .@-.    PUSH     {r4,lr}
        0x00002aa8:    e593305c    \0..    LDR      r3,[r3,#0x5c]
    $p
        0x00002aac:    e12fff33    3./.    BLX      r3
        0x00002ab0:    e1a00c00    ....    LSL      r0,r0,#24
        0x00002ab4:    e1a00c40    @...    ASR      r0,r0,#24
        0x00002ab8:    e8bd8010    ....    POP      {r4,pc}
    $d
        0x00002abc:    e8700000    ..p.    DCD    3899654144
    $a
    .text
    eLIBs_CleanDCacheRegion
        0x00002ac0:    e281103e    >...    ADD      r1,r1,#0x3e
        0x00002ac4:    ea000151    Q...    B        _eLIBs_CleanDCacheRegion ; 0x3010
    eLIBs_CleanFlushDCacheRegion
        0x00002ac8:    e281103e    >...    ADD      r1,r1,#0x3e
        0x00002acc:    ea000156    V...    B        _eLIBs_CleanFlushDCacheRegion ; 0x302c
    eLIBs_CleanFlushCacheRegion
        0x00002ad0:    e281103e    >...    ADD      r1,r1,#0x3e
        0x00002ad4:    ea00015b    [...    B        _eLIBs_CleanFlushCacheRegion ; 0x3048
    eLIBs_FlushICacheRegion
        0x00002ad8:    e281103e    >...    ADD      r1,r1,#0x3e
        0x00002adc:    ea000135    5...    B        _eLIBs_FlushICacheRegion ; 0x2fb8
    eLIBs_FlushDCacheRegion
        0x00002ae0:    e92d4070    p@-.    PUSH     {r4-r6,lr}
        0x00002ae4:    e1a05001    .P..    MOV      r5,r1
        0x00002ae8:    e3a01020     ...    MOV      r1,#0x20
        0x00002aec:    e1a04000    .@..    MOV      r4,r0
        0x00002af0:    eb00014d    M...    BL       _eLIBs_CleanFlushDCacheRegion ; 0x302c
        0x00002af4:    e0840005    ....    ADD      r0,r4,r5
        0x00002af8:    e3a01020     ...    MOV      r1,#0x20
        0x00002afc:    eb00014a    J...    BL       _eLIBs_CleanFlushDCacheRegion ; 0x302c
        0x00002b00:    e3550020     .U.    CMP      r5,#0x20
        0x00002b04:    81a01005    ....    MOVHI    r1,r5
        0x00002b08:    82840020     ...    ADDHI    r0,r4,#0x20
        0x00002b0c:    88bd4070    p@..    POPHI    {r4-r6,lr}
        0x00002b10:    8a00012f    /...    BHI      _eLIBs_FlushDCacheRegion ; 0x2fd4
        0x00002b14:    e8bd8070    p...    POP      {r4-r6,pc}
    eLIBs_FlushCacheRegion
        0x00002b18:    e92d4070    p@-.    PUSH     {r4-r6,lr}
        0x00002b1c:    e1a05001    .P..    MOV      r5,r1
        0x00002b20:    e3a01020     ...    MOV      r1,#0x20
        0x00002b24:    e1a04000    .@..    MOV      r4,r0
        0x00002b28:    eb000146    F...    BL       _eLIBs_CleanFlushCacheRegion ; 0x3048
        0x00002b2c:    e0840005    ....    ADD      r0,r4,r5
        0x00002b30:    e3a01001    ....    MOV      r1,#1
        0x00002b34:    eb000143    C...    BL       _eLIBs_CleanFlushCacheRegion ; 0x3048
        0x00002b38:    e3550020     .U.    CMP      r5,#0x20
        0x00002b3c:    81a01005    ....    MOVHI    r1,r5
        0x00002b40:    82840020     ...    ADDHI    r0,r4,#0x20
        0x00002b44:    88bd4070    p@..    POPHI    {r4-r6,lr}
        0x00002b48:    8a000128    (...    BHI      _eLIBs_FlushCacheRegion ; 0x2ff0
        0x00002b4c:    e8bd8070    p...    POP      {r4-r6,pc}
    $a
    .text
    eLIBs_vsnprintf
        0x00002b50:    e59fc090    ....    LDR      r12,[pc,#144] ; [0x2be8] = 0xe8700000
        0x00002b54:    e59cc060    `...    LDR      r12,[r12,#0x60]
    $p
        0x00002b58:    e12fff1c    ../.    BX       r12
    eLIBs_vscnprintf
        0x00002b5c:    e92d4010    .@-.    PUSH     {r4,lr}
        0x00002b60:    e1a04001    .@..    MOV      r4,r1
        0x00002b64:    ebfffff9    ....    BL       eLIBs_vsnprintf ; 0x2b50
        0x00002b68:    e1500004    ..P.    CMP      r0,r4
        0x00002b6c:    22440001    ..D"    SUBCS    r0,r4,#1
        0x00002b70:    e8bd8010    ....    POP      {r4,pc}
    eLIBs_snprintf
        0x00002b74:    e92d000f    ..-.    PUSH     {r0-r3}
        0x00002b78:    e92d4010    .@-.    PUSH     {r4,lr}
        0x00002b7c:    e59d2010    . ..    LDR      r2,[sp,#0x10]
        0x00002b80:    e28d3014    .0..    ADD      r3,sp,#0x14
        0x00002b84:    ebfffff1    ....    BL       eLIBs_vsnprintf ; 0x2b50
        0x00002b88:    e49d4004    .@..    POP      {r4}
        0x00002b8c:    e49df014    ....    LDR      pc,[sp],#0x14
    eLIBs_scnprintf
        0x00002b90:    e92d000f    ..-.    PUSH     {r0-r3}
        0x00002b94:    e92d4010    .@-.    PUSH     {r4,lr}
        0x00002b98:    e59d2010    . ..    LDR      r2,[sp,#0x10]
        0x00002b9c:    e28d3014    .0..    ADD      r3,sp,#0x14
        0x00002ba0:    e1a04001    .@..    MOV      r4,r1
        0x00002ba4:    ebffffe9    ....    BL       eLIBs_vsnprintf ; 0x2b50
        0x00002ba8:    e1500004    ..P.    CMP      r0,r4
        0x00002bac:    22440001    ..D"    SUBCS    r0,r4,#1
        0x00002bb0:    e49d4004    .@..    POP      {r4}
        0x00002bb4:    e49df014    ....    LDR      pc,[sp],#0x14
    eLIBs_vsprintf
        0x00002bb8:    e1a03002    .0..    MOV      r3,r2
        0x00002bbc:    e1a02001    . ..    MOV      r2,r1
        0x00002bc0:    e3e01000    ....    MVN      r1,#0
        0x00002bc4:    eaffffe1    ....    B        eLIBs_vsnprintf ; 0x2b50
    eLIBs_sprintf
        0x00002bc8:    e92d000f    ..-.    PUSH     {r0-r3}
        0x00002bcc:    e92d4010    .@-.    PUSH     {r4,lr}
        0x00002bd0:    e59d200c    . ..    LDR      r2,[sp,#0xc]
        0x00002bd4:    e28d3010    .0..    ADD      r3,sp,#0x10
        0x00002bd8:    e3e01000    ....    MVN      r1,#0
        0x00002bdc:    ebffffdb    ....    BL       eLIBs_vsnprintf ; 0x2b50
        0x00002be0:    e49d4004    .@..    POP      {r4}
        0x00002be4:    e49df014    ....    LDR      pc,[sp],#0x14
    $d
        0x00002be8:    e8700000    ..p.    DCD    3899654144
    $a
    .text
    __aeabi_memclr4
    __aeabi_memclr8
    __rt_memclr_w
        0x00002bec:    e3a02000    . ..    MOV      r2,#0
    _memset_w
        0x00002bf0:    e2511020     .Q.    SUBS     r1,r1,#0x20
        0x00002bf4:    e92d4000    .@-.    STMDB    sp!,{lr}
        0x00002bf8:    e1a0e002    ....    MOV      lr,r2
        0x00002bfc:    e1a03002    .0..    MOV      r3,r2
        0x00002c00:    e1a0c002    ....    MOV      r12,r2
    _loop
        0x00002c04:    28a0500c    .P.(    STMCS    r0!,{r2,r3,r12,lr}
        0x00002c08:    28a0500c    .P.(    STMCS    r0!,{r2,r3,r12,lr}
        0x00002c0c:    22511020     .Q"    SUBSCS   r1,r1,#0x20
        0x00002c10:    2afffffb    ...*    BCS      _loop ; 0x2c04
        0x00002c14:    e1b01e01    ....    LSLS     r1,r1,#28
        0x00002c18:    28a0500c    .P.(    STMCS    r0!,{r2,r3,r12,lr}
        0x00002c1c:    48a0000c    ...H    STMMI    r0!,{r2,r3}
        0x00002c20:    e1b01101    ....    LSLS     r1,r1,#2
        0x00002c24:    e8bd4000    .@..    LDM      sp!,{lr}
        0x00002c28:    24802004    . .$    STRCS    r2,[r0],#4
        0x00002c2c:    01a0f00e    ....    MOVEQ    pc,lr
        0x00002c30:    44c02001    . .D    STRBMI   r2,[r0],#1
        0x00002c34:    44c02001    . .D    STRBMI   r2,[r0],#1
        0x00002c38:    e3110101    ....    TST      r1,#0x40000000
        0x00002c3c:    14c02001    . ..    STRBNE   r2,[r0],#1
        0x00002c40:    e1a0f00e    ....    MOV      pc,lr
    $a
    .text
    __aeabi_idiv
    __aeabi_idivmod
        0x00002c44:    e190c001    ....    ORRS     r12,r0,r1
        0x00002c48:    4a000021    !..J    BMI      __arm_div_negative ; 0x2cd4
        0x00002c4c:    e071c0a0    ..q.    RSBS     r12,r1,r0,LSR #1
        0x00002c50:    e3a02000    . ..    MOV      r2,#0
        0x00002c54:    3a00001a    ...:    BCC      __arm_div1 ; 0x2cc4
        0x00002c58:    e071c220     .q.    RSBS     r12,r1,r0,LSR #4
        0x00002c5c:    3a00000f    ...:    BCC      __arm_div4 ; 0x2ca0
        0x00002c60:    e071c420     .q.    RSBS     r12,r1,r0,LSR #8
        0x00002c64:    3a000001    ...:    BCC      __arm_div8 ; 0x2c70
        0x00002c68:    e3a03000    .0..    MOV      r3,#0
        0x00002c6c:    ea000020     ...    B        __arm_div_large ; 0x2cf4
    __arm_div8
        0x00002c70:    e071c3a0    ..q.    RSBS     r12,r1,r0,LSR #7
        0x00002c74:    20400381    ..@     SUBCS    r0,r0,r1,LSL #7
        0x00002c78:    e0a22002    . ..    ADC      r2,r2,r2
        0x00002c7c:    e071c320     .q.    RSBS     r12,r1,r0,LSR #6
        0x00002c80:    20400301    ..@     SUBCS    r0,r0,r1,LSL #6
        0x00002c84:    e0a22002    . ..    ADC      r2,r2,r2
        0x00002c88:    e071c2a0    ..q.    RSBS     r12,r1,r0,LSR #5
        0x00002c8c:    20400281    ..@     SUBCS    r0,r0,r1,LSL #5
        0x00002c90:    e0a22002    . ..    ADC      r2,r2,r2
        0x00002c94:    e071c220     .q.    RSBS     r12,r1,r0,LSR #4
        0x00002c98:    20400201    ..@     SUBCS    r0,r0,r1,LSL #4
        0x00002c9c:    e0a22002    . ..    ADC      r2,r2,r2
    __arm_div4
        0x00002ca0:    e071c1a0    ..q.    RSBS     r12,r1,r0,LSR #3
        0x00002ca4:    20400181    ..@     SUBCS    r0,r0,r1,LSL #3
        0x00002ca8:    e0a22002    . ..    ADC      r2,r2,r2
        0x00002cac:    e071c120     .q.    RSBS     r12,r1,r0,LSR #2
        0x00002cb0:    20400101    ..@     SUBCS    r0,r0,r1,LSL #2
        0x00002cb4:    e0b22002    . ..    ADCS     r2,r2,r2
        0x00002cb8:    e071c0a0    ..q.    RSBS     r12,r1,r0,LSR #1
        0x00002cbc:    20400081    ..@     SUBCS    r0,r0,r1,LSL #1
        0x00002cc0:    e0a22002    . ..    ADC      r2,r2,r2
    __arm_div1
        0x00002cc4:    e0501001    ..P.    SUBS     r1,r0,r1
        0x00002cc8:    31a01000    ...1    MOVCC    r1,r0
        0x00002ccc:    e0a20002    ....    ADC      r0,r2,r2
        0x00002cd0:    e1a0f00e    ....    MOV      pc,lr
    __arm_div_negative
        0x00002cd4:    e2112102    .!..    ANDS     r2,r1,#0x80000000
        0x00002cd8:    42611000    ..aB    RSBMI    r1,r1,#0
        0x00002cdc:    e0323040    @02.    EORS     r3,r2,r0,ASR #32
        0x00002ce0:    22600000    ..`"    RSBCS    r0,r0,#0
        0x00002ce4:    e071c220     .q.    RSBS     r12,r1,r0,LSR #4
        0x00002ce8:    3a00001d    ...:    BCC      0x2d64 ; __arm_div_large + 112
        0x00002cec:    e071c420     .q.    RSBS     r12,r1,r0,LSR #8
        0x00002cf0:    3a00000f    ...:    BCC      0x2d34 ; __arm_div_large + 64
    __arm_div_large
        0x00002cf4:    e1a01301    ....    LSL      r1,r1,#6
        0x00002cf8:    e071c420     .q.    RSBS     r12,r1,r0,LSR #8
        0x00002cfc:    e382233f    ?#..    ORR      r2,r2,#0xfc000000
        0x00002d00:    3a00000b    ...:    BCC      0x2d34 ; __arm_div_large + 64
        0x00002d04:    e1a01301    ....    LSL      r1,r1,#6
        0x00002d08:    e071c420     .q.    RSBS     r12,r1,r0,LSR #8
        0x00002d0c:    e382263f    ?&..    ORR      r2,r2,#0x3f00000
        0x00002d10:    3a000007    ...:    BCC      0x2d34 ; __arm_div_large + 64
        0x00002d14:    e1a01301    ....    LSL      r1,r1,#6
        0x00002d18:    e071c420     .q.    RSBS     r12,r1,r0,LSR #8
        0x00002d1c:    e382293f    ?)..    ORR      r2,r2,#0xfc000
        0x00002d20:    23822c3f    ?,.#    ORRCS    r2,r2,#0x3f00
        0x00002d24:    21a01301    ...!    LSLCS    r1,r1,#6
        0x00002d28:    e271c000    ..q.    RSBS     r12,r1,#0
        0x00002d2c:    2a00001d    ...*    BCS      __aeabi_idiv0 ; 0x2da8
        0x00002d30:    21a01321    !..!    LSRCS    r1,r1,#6
        0x00002d34:    e071c3a0    ..q.    RSBS     r12,r1,r0,LSR #7
        0x00002d38:    20400381    ..@     SUBCS    r0,r0,r1,LSL #7
        0x00002d3c:    e0a22002    . ..    ADC      r2,r2,r2
        0x00002d40:    e071c320     .q.    RSBS     r12,r1,r0,LSR #6
        0x00002d44:    20400301    ..@     SUBCS    r0,r0,r1,LSL #6
        0x00002d48:    e0a22002    . ..    ADC      r2,r2,r2
        0x00002d4c:    e071c2a0    ..q.    RSBS     r12,r1,r0,LSR #5
        0x00002d50:    20400281    ..@     SUBCS    r0,r0,r1,LSL #5
        0x00002d54:    e0a22002    . ..    ADC      r2,r2,r2
        0x00002d58:    e071c220     .q.    RSBS     r12,r1,r0,LSR #4
        0x00002d5c:    20400201    ..@     SUBCS    r0,r0,r1,LSL #4
        0x00002d60:    e0a22002    . ..    ADC      r2,r2,r2
        0x00002d64:    e071c1a0    ..q.    RSBS     r12,r1,r0,LSR #3
        0x00002d68:    20400181    ..@     SUBCS    r0,r0,r1,LSL #3
        0x00002d6c:    e0a22002    . ..    ADC      r2,r2,r2
        0x00002d70:    e071c120     .q.    RSBS     r12,r1,r0,LSR #2
        0x00002d74:    20400101    ..@     SUBCS    r0,r0,r1,LSL #2
        0x00002d78:    e0b22002    . ..    ADCS     r2,r2,r2
        0x00002d7c:    2affffeb    ...*    BCS      0x2d30 ; __arm_div_large + 60
        0x00002d80:    e071c0a0    ..q.    RSBS     r12,r1,r0,LSR #1
        0x00002d84:    20400081    ..@     SUBCS    r0,r0,r1,LSL #1
        0x00002d88:    e0a22002    . ..    ADC      r2,r2,r2
        0x00002d8c:    e0501001    ..P.    SUBS     r1,r0,r1
        0x00002d90:    31a01000    ...1    MOVCC    r1,r0
        0x00002d94:    e0a20002    ....    ADC      r0,r2,r2
        0x00002d98:    e1b03fc3    .?..    ASRS     r3,r3,#31
        0x00002d9c:    42600000    ..`B    RSBMI    r0,r0,#0
        0x00002da0:    22611000    ..a"    RSBCS    r1,r1,#0
        0x00002da4:    e1a0f00e    ....    MOV      pc,lr
    $a
    .text
    __aeabi_idiv0
        0x00002da8:    e1a00000    ....    MOV      r0,r0
    $a
    .text
    __rt_div0
        0x00002dac:    e3a00002    ....    MOV      r0,#2
        0x00002db0:    e3a01002    ....    MOV      r1,#2
        0x00002db4:    e1a00000    ....    MOV      r0,r0
    $a
    .text
    __rt_raise
        0x00002db8:    e92d4010    .@-.    PUSH     {r4,lr}
        0x00002dbc:    eb000009    ....    BL       __raise ; 0x2de8
        0x00002dc0:    e3500000    ..P.    CMP      r0,#0
        0x00002dc4:    08bd8010    ....    POPEQ    {r4,pc}
        0x00002dc8:    e8bd4010    .@..    POP      {r4,lr}
        0x00002dcc:    e1a00000    ....    MOV      r0,r0
    $a
    .text
    _sys_exit
        0x00002dd0:    e59f100c    ....    LDR      r1,[pc,#12] ; [0x2de4] = 0x20026
        0x00002dd4:    e3a00018    ....    MOV      r0,#0x18
        0x00002dd8:    ef123456    V4..    SVC      #0x123456 ; formerly SWI
        0x00002ddc:    e1a0f00e    ....    MOV      pc,lr
    $d
    $f
        0x00002de0:    00000054    T...    DCD    84
        0x00002de4:    00020026    &...    DCD    131110
    $a
    .text
    __raise
        0x00002de8:    e92d4070    p@-.    PUSH     {r4-r6,lr}
        0x00002dec:    e1a05001    .P..    MOV      r5,r1
        0x00002df0:    e1a01000    ....    MOV      r1,r0
        0x00002df4:    e1a04000    .@..    MOV      r4,r0
        0x00002df8:    e3e00000    ....    MVN      r0,#0
        0x00002dfc:    e1a00000    ....    MOV      r0,r0
        0x00002e00:    e3700001    ..p.    CMN      r0,#1
        0x00002e04:    e1a02000    . ..    MOV      r2,r0
        0x00002e08:    01a00004    ....    MOVEQ    r0,r4
        0x00002e0c:    01a01005    ....    MOVEQ    r1,r5
        0x00002e10:    08bd4070    p@..    POPEQ    {r4-r6,lr}
        0x00002e14:    0a000007    ....    BEQ      __default_signal_handler ; 0x2e38
        0x00002e18:    e3720003    ..r.    CMN      r2,#3
        0x00002e1c:    11a01005    ....    MOVNE    r1,r5
        0x00002e20:    11a00004    ....    MOVNE    r0,r4
        0x00002e24:    11a0e00f    ....    MOVNE    lr,pc
    $p
        0x00002e28:    11a0f002    ....    MOVNE    pc,r2
        0x00002e2c:    e3a00000    ....    MOV      r0,#0
        0x00002e30:    e8bd8070    p...    POP      {r4-r6,pc}
    $a
    .text
    __I_use_semihosting_swi
    __semihosting_swi_guard
        0x00002e34:    e1a0f00e    ....    MOV      pc,lr
    $a
    .text
    __default_signal_handler
        0x00002e38:    e2402001    . @.    SUB      r2,r0,#1
        0x00002e3c:    e92d4070    p@-.    PUSH     {r4-r6,lr}
        0x00002e40:    e352000e    ..R.    CMP      r2,#0xe
        0x00002e44:    228f50c0    .P."    ADRCS    r5,{pc}+0xc8 ; 0x2f0c
        0x00002e48:    e28f40b8    .@..    ADR      r4,{pc}+0xc0 ; 0x2f08
        0x00002e4c:    2a00001c    ...*    BCS      0x2ec4 ; __default_signal_handler + 140
        0x00002e50:    e3a02017    . ..    MOV      r2,#0x17
        0x00002e54:    e59f30c0    .0..    LDR      r3,[pc,#192] ; [0x2f1c] = 0x204
        0x00002e58:    e0020290    ....    MUL      r2,r0,r2
        0x00002e5c:    e08f3003    .0..    ADD      r3,pc,r3
        0x00002e60:    e3500002    ..P.    CMP      r0,#2
        0x00002e64:    e0822003    . ..    ADD      r2,r2,r3
        0x00002e68:    e2425017    .PB.    SUB      r5,r2,#0x17
        0x00002e6c:    1a00000e    ....    BNE      0x2eac ; __default_signal_handler + 116
        0x00002e70:    e3110301    ....    TST      r1,#0x4000000
        0x00002e74:    128f40a4    .@..    ADRNE    r4,{pc}+0xac ; 0x2f20
        0x00002e78:    1a000011    ....    BNE      0x2ec4 ; __default_signal_handler + 140
        0x00002e7c:    e3110382    ....    TST      r1,#0x8000002
        0x00002e80:    128f40ac    .@..    ADRNE    r4,{pc}+0xb4 ; 0x2f34
        0x00002e84:    1a00000e    ....    BNE      0x2ec4 ; __default_signal_handler + 140
        0x00002e88:    e3110201    ....    TST      r1,#0x10000000
        0x00002e8c:    128f40b0    .@..    ADRNE    r4,{pc}+0xb8 ; 0x2f44
        0x00002e90:    1a00000b    ....    BNE      0x2ec4 ; __default_signal_handler + 140
        0x00002e94:    e3110202    ....    TST      r1,#0x20000000
        0x00002e98:    128f40b0    .@..    ADRNE    r4,{pc}+0xb8 ; 0x2f50
        0x00002e9c:    1a000008    ....    BNE      0x2ec4 ; __default_signal_handler + 140
        0x00002ea0:    e3110101    ....    TST      r1,#0x40000000
        0x00002ea4:    128f40b0    .@..    ADRNE    r4,{pc}+0xb8 ; 0x2f5c
        0x00002ea8:    ea000005    ....    B        0x2ec4 ; __default_signal_handler + 140
        0x00002eac:    e3500008    ..P.    CMP      r0,#8
        0x00002eb0:    01a04001    .@..    MOVEQ    r4,r1
        0x00002eb4:    0a000002    ....    BEQ      0x2ec4 ; __default_signal_handler + 140
        0x00002eb8:    e3500009    ..P.    CMP      r0,#9
        0x00002ebc:    03510001    ..Q.    CMPEQ    r1,#1
        0x00002ec0:    028f50a4    .P..    ADREQ    r5,{pc}+0xac ; 0x2f6c
        0x00002ec4:    e3a0000a    ....    MOV      r0,#0xa
        0x00002ec8:    ea000000    ....    B        0x2ed0 ; __default_signal_handler + 152
        0x00002ecc:    e2855001    .P..    ADD      r5,r5,#1
        0x00002ed0:    eb00002b    +...    BL       _ttywrch ; 0x2f84
        0x00002ed4:    e5d50000    ....    LDRB     r0,[r5,#0]
        0x00002ed8:    e3500000    ..P.    CMP      r0,#0
        0x00002edc:    1afffffa    ....    BNE      0x2ecc ; __default_signal_handler + 148
        0x00002ee0:    ea000001    ....    B        0x2eec ; __default_signal_handler + 180
        0x00002ee4:    e2844001    .@..    ADD      r4,r4,#1
        0x00002ee8:    eb000025    %...    BL       _ttywrch ; 0x2f84
        0x00002eec:    e5d40000    ....    LDRB     r0,[r4,#0]
        0x00002ef0:    e3500000    ..P.    CMP      r0,#0
        0x00002ef4:    1afffffa    ....    BNE      0x2ee4 ; __default_signal_handler + 172
        0x00002ef8:    e3a0000a    ....    MOV      r0,#0xa
        0x00002efc:    eb000020     ...    BL       _ttywrch ; 0x2f84
        0x00002f00:    e3a00001    ....    MOV      r0,#1
        0x00002f04:    e8bd8070    p...    POP      {r4-r6,pc}
    $d
        0x00002f08:    00000000    ....    DCD    0
        0x00002f0c:    6e6b6e55    Unkn    DCD    1852534357
        0x00002f10:    206e776f    own     DCD    544110447
        0x00002f14:    6e676973    sign    DCD    1852270963
        0x00002f18:    00006c61    al..    DCD    27745
        0x00002f1c:    00000204    ....    DCD    516
        0x00002f20:    61766e49    Inva    DCD    1635151433
        0x00002f24:    2064696c    lid     DCD    543451500
        0x00002f28:    7265704f    Oper    DCD    1919250511
        0x00002f2c:    6f697461    atio    DCD    1869182049
        0x00002f30:    0000006e    n...    DCD    110
        0x00002f34:    69766944    Divi    DCD    1769367876
        0x00002f38:    42206564    de B    DCD    1109419364
        0x00002f3c:    655a2079    y Ze    DCD    1700405369
        0x00002f40:    00006f72    ro..    DCD    28530
        0x00002f44:    7265764f    Over    DCD    1919252047
        0x00002f48:    776f6c66    flow    DCD    2003790950
        0x00002f4c:    00000000    ....    DCD    0
        0x00002f50:    65646e55    Unde    DCD    1701080661
        0x00002f54:    6f6c6672    rflo    DCD    1869375090
        0x00002f58:    00000077    w...    DCD    119
        0x00002f5c:    78656e49    Inex    DCD    2019913289
        0x00002f60:    20746361    act     DCD    544498529
        0x00002f64:    75736552    Resu    DCD    1970496850
        0x00002f68:    0000746c    lt..    DCD    29804
        0x00002f6c:    6548203a    : He    DCD    1699225658
        0x00002f70:    6d207061    ap m    DCD    1830842465
        0x00002f74:    726f6d65    emor    DCD    1919905125
        0x00002f78:    6f632079    y co    DCD    1868767353
        0x00002f7c:    70757272    rrup    DCD    1886745202
        0x00002f80:    00646574    ted.    DCD    6579572
    $a
    .text
    _ttywrch
        0x00002f84:    e92d4008    .@-.    PUSH     {r3,lr}
        0x00002f88:    e1a0100d    ....    MOV      r1,sp
        0x00002f8c:    e58d0000    ....    STR      r0,[sp,#0]
        0x00002f90:    e3a00003    ....    MOV      r0,#3
        0x00002f94:    ef123456    V4..    SVC      #0x123456 ; formerly SWI
        0x00002f98:    e8bd9000    ....    POP      {r12,pc}
    $a
    .text_udiv
    __aeabi_uidiv
    __aeabi_uidivmod
        0x00002f9c:    e071c220     .q.    RSBS     r12,r1,r0,LSR #4
        0x00002fa0:    e3a02000    . ..    MOV      r2,#0
        0x00002fa4:    3affff3d    =..:    BCC      __arm_div4 ; 0x2ca0
        0x00002fa8:    e071c420     .q.    RSBS     r12,r1,r0,LSR #8
        0x00002fac:    3affff2f    /..:    BCC      __arm_div8 ; 0x2c70
        0x00002fb0:    e3a03000    .0..    MOV      r3,#0
        0x00002fb4:    eaffff4e    N...    B        __arm_div_large ; 0x2cf4
    $a
    cleanflushcachebyregion
    _eLIBs_FlushICacheRegion
        0x00002fb8:    e3c0001f    ....    BIC      r0,r0,#0x1f
        0x00002fbc:    e1a012a1    ....    LSR      r1,r1,#5
        0x00002fc0:    ee070f35    5...    MCR      p15,#0x0,r0,c7,c5,#1
        0x00002fc4:    e2800020     ...    ADD      r0,r0,#0x20
        0x00002fc8:    e2511001    ..Q.    SUBS     r1,r1,#1
        0x00002fcc:    1afffffb    ....    BNE      0x2fc0 ; _eLIBs_FlushICacheRegion + 8
        0x00002fd0:    e1a0f00e    ....    MOV      pc,lr
    _eLIBs_FlushDCacheRegion
        0x00002fd4:    e3c0001f    ....    BIC      r0,r0,#0x1f
        0x00002fd8:    e1a012a1    ....    LSR      r1,r1,#5
        0x00002fdc:    ee070f36    6...    MCR      p15,#0x0,r0,c7,c6,#1
        0x00002fe0:    e2800020     ...    ADD      r0,r0,#0x20
        0x00002fe4:    e2511001    ..Q.    SUBS     r1,r1,#1
        0x00002fe8:    1afffffb    ....    BNE      0x2fdc ; _eLIBs_FlushDCacheRegion + 8
        0x00002fec:    e1a0f00e    ....    MOV      pc,lr
    _eLIBs_FlushCacheRegion
        0x00002ff0:    e3c0001f    ....    BIC      r0,r0,#0x1f
        0x00002ff4:    e1a012a1    ....    LSR      r1,r1,#5
        0x00002ff8:    ee070f35    5...    MCR      p15,#0x0,r0,c7,c5,#1
        0x00002ffc:    ee070f36    6...    MCR      p15,#0x0,r0,c7,c6,#1
        0x00003000:    e2800020     ...    ADD      r0,r0,#0x20
        0x00003004:    e2511001    ..Q.    SUBS     r1,r1,#1
        0x00003008:    1afffffa    ....    BNE      0x2ff8 ; _eLIBs_FlushCacheRegion + 8
        0x0000300c:    e1a0f00e    ....    MOV      pc,lr
    _eLIBs_CleanDCacheRegion
        0x00003010:    e3c0001f    ....    BIC      r0,r0,#0x1f
        0x00003014:    e1a012a1    ....    LSR      r1,r1,#5
        0x00003018:    ee070f3a    :...    MCR      p15,#0x0,r0,c7,c10,#1
        0x0000301c:    e2800020     ...    ADD      r0,r0,#0x20
        0x00003020:    e2511001    ..Q.    SUBS     r1,r1,#1
        0x00003024:    1afffffb    ....    BNE      0x3018 ; _eLIBs_CleanDCacheRegion + 8
        0x00003028:    e1a0f00e    ....    MOV      pc,lr
    _eLIBs_CleanFlushDCacheRegion
        0x0000302c:    e3c0001f    ....    BIC      r0,r0,#0x1f
        0x00003030:    e1a012a1    ....    LSR      r1,r1,#5
        0x00003034:    ee070f3e    >...    MCR      p15,#0x0,r0,c7,c14,#1
        0x00003038:    e2800020     ...    ADD      r0,r0,#0x20
        0x0000303c:    e2511001    ..Q.    SUBS     r1,r1,#1
        0x00003040:    1afffffb    ....    BNE      0x3034 ; _eLIBs_CleanFlushDCacheRegion + 8
        0x00003044:    e1a0f00e    ....    MOV      pc,lr
    _eLIBs_CleanFlushCacheRegion
        0x00003048:    e3c0001f    ....    BIC      r0,r0,#0x1f
        0x0000304c:    e1a012a1    ....    LSR      r1,r1,#5
        0x00003050:    ee070f3e    >...    MCR      p15,#0x0,r0,c7,c14,#1
        0x00003054:    ee070f35    5...    MCR      p15,#0x0,r0,c7,c5,#1
        0x00003058:    e2800020     ...    ADD      r0,r0,#0x20
        0x0000305c:    e2511001    ..Q.    SUBS     r1,r1,#1
        0x00003060:    1afffffa    ....    BNE      0x3050 ; _eLIBs_CleanFlushCacheRegion + 8
        0x00003064:    e1a0f00e    ....    MOV      pc,lr
    $d.realdata
    .constdata
    .constdata$1
    messages@__default_signal_handler_0
        0x00003068:    6f6e6241    Abno    DCD    1869505089
        0x0000306c:    6c616d72    rmal    DCD    1818324338
        0x00003070:    72657420     ter    DCD    1919251488
        0x00003074:    616e696d    mina    DCD    1634625901
        0x00003078:    6e6f6974    tion    DCD    1852795252
        0x0000307c:    41000000    ...A    DCD    1090519040
        0x00003080:    68746972    rith    DCD    1752459634
        0x00003084:    6974656d    meti    DCD    1769235821
        0x00003088:    78652063    c ex    DCD    2019893347
        0x0000308c:    74706563    cept    DCD    1953523043
        0x00003090:    3a6e6f69    ion:    DCD    980316009
        0x00003094:    6c490020     .Il    DCD    1816723488
        0x00003098:    6167656c    lega    DCD    1634166124
        0x0000309c:    6e69206c    l in    DCD    1852383340
        0x000030a0:    75727473    stru    DCD    1970435187
        0x000030a4:    6f697463    ctio    DCD    1869182051
        0x000030a8:    0000006e    n...    DCD    110
        0x000030ac:    746e4900    .Int    DCD    1953384704
        0x000030b0:    75727265    erru    DCD    1970434661
        0x000030b4:    72207470    pt r    DCD    1914729584
        0x000030b8:    69656365    ecei    DCD    1768252261
        0x000030bc:    00646576    ved.    DCD    6579574
        0x000030c0:    00000000    ....    DCD    0
        0x000030c4:    656c6c49    Ille    DCD    1701604425
        0x000030c8:    206c6167    gal     DCD    543973735
        0x000030cc:    72646461    addr    DCD    1919181921
        0x000030d0:    00737365    ess.    DCD    7566181
        0x000030d4:    00000000    ....    DCD    0
        0x000030d8:    54000000    ...T    DCD    1409286144
        0x000030dc:    696d7265    ermi    DCD    1768780389
        0x000030e0:    6974616e    nati    DCD    1769234798
        0x000030e4:    72206e6f    on r    DCD    1914728047
        0x000030e8:    65757165    eque    DCD    1702195557
        0x000030ec:    00007473    st..    DCD    29811
        0x000030f0:    74530000    ..St    DCD    1951596544
        0x000030f4:    206b6361    ack     DCD    543908705
        0x000030f8:    7265766f    over    DCD    1919252079
        0x000030fc:    776f6c66    flow    DCD    2003790950
        0x00003100:    00000000    ....    DCD    0
        0x00003104:    00000000    ....    DCD    0
        0x00003108:    64655200    .Red    DCD    1684361728
        0x0000310c:    63657269    irec    DCD    1667592809
        0x00003110:    63203a74    t: c    DCD    1663056500
        0x00003114:    74276e61    an't    DCD    1948741217
        0x00003118:    65706f20     ope    DCD    1701867296
        0x0000311c:    00203a6e    n: .    DCD    2112110
        0x00003120:    2074754f    Out     DCD    544503119
        0x00003124:    6820666f    of h    DCD    1746953839
        0x00003128:    20706165    eap     DCD    544235877
        0x0000312c:    6f6d656d    memo    DCD    1869440365
        0x00003130:    00007972    ry..    DCD    31090
        0x00003134:    55000000    ...U    DCD    1426063360
        0x00003138:    2d726573    ser-    DCD    762471795
        0x0000313c:    69666564    defi    DCD    1768318308
        0x00003140:    2064656e    ned     DCD    543450478
        0x00003144:    6e676973    sign    DCD    1852270963
        0x00003148:    31206c61    al 1    DCD    824208481
        0x0000314c:    73550000    ..Us    DCD    1934950400
        0x00003150:    642d7265    er-d    DCD    1680700005
        0x00003154:    6e696665    efin    DCD    1852401253
        0x00003158:    73206465    ed s    DCD    1931502693
        0x0000315c:    616e6769    igna    DCD    1634625385
        0x00003160:    0032206c    l 2.    DCD    3285100
        0x00003164:    72755000    .Pur    DCD    1920290816
        0x00003168:    69762065    e vi    DCD    1769349221
        0x0000316c:    61757472    rtua    DCD    1635087474
        0x00003170:    6e66206c    l fn    DCD    1852186732
        0x00003174:    6c616320     cal    DCD    1818321696
        0x00003178:    0064656c    led.    DCD    6579564
        0x0000317c:    202b2b43    C++     DCD    539700035
        0x00003180:    7262696c    libr    DCD    1919052140
        0x00003184:    20797261    ary     DCD    544830049
        0x00003188:    65637865    exce    DCD    1701017701
        0x0000318c:    6f697470    ptio    DCD    1869182064
        0x00003190:    4f00006e    n..O    DCD    1325400174
        0x00003194:    6f207475    ut o    DCD    1864397941
        0x00003198:    65682066    f he    DCD    1701322854
        0x0000319c:    00007061    ap..    DCD    28769
        0x000031a0:    00000000    ....    DCD    0
        0x000031a4:    00000000    ....    DCD    0
        0x000031a8:    00000000    ....    DCD    0

** Section #2 'EXEC_APP' (SHT_PROGBITS) [SHF_ALLOC + SHF_WRITE]
    Size   : 124 bytes (alignment 8)
    Address: 0x000031ac

    0x0031ac:   00 00 00 00 00 00 00 00 00 00 00 00 00 00 00 00    ................
    0x0031bc:   00 00 00 00 00 00 00 00 01 00 00 00 00 00 e0 01    ................
    0x0031cc:   00 00 00 00 00 00 00 00 00 00 00 00 00 00 00 00    ................
    0x0031dc:   05 00 00 00 00 00 00 00 00 65 3a 5c 00 30 30 30    .........e:\.000
    0x0031ec:   12 34 56 78 9a bc de f0 fe dc ba 98 76 54 32 10    .4Vx........vT2.
    0x0031fc:   00 00 00 00 ff ff ff ff 00 00 00 00 00 00 00 00    ................
    0x00320c:   00 00 00 00 00 00 00 00 00 00 00 00 00 00 00 00    ................
    0x00321c:   00 00 00 00 00 00 00 00 00 00 00 00                ............


** Section #3 'EXEC_APP' (SHT_NOBITS) [SHF_ALLOC + SHF_WRITE]
    Size   : 1024 bytes
    Address: 0x00003228


** Section #4 'MAGIC' (SHT_PROGBITS) [SHF_ALLOC]
    Size   : 36 bytes (alignment 4)
    Address: 0xffff0000

    0xffff0000:   65 50 44 4b 2e 65 78 66 00 00 00 01 00 00 00 00    ePDK.exf........
    0xffff0010:   00 00 f0 01 00 04 00 00 08 06 00 00 00 00 04 00    ................
    0xffff0020:   03 00 00 00                                        ....


** Section #5 '.debug_abbrev' (SHT_PROGBITS)
    Size   : 1236 bytes


** Section #6 '.debug_frame' (SHT_PROGBITS)
    Size   : 3768 bytes


** Section #7 '.debug_info' (SHT_PROGBITS)
    Size   : 560860 bytes


** Section #8 '.debug_line' (SHT_PROGBITS)
    Size   : 51488 bytes


** Section #9 '.debug_loc' (SHT_PROGBITS)
    Size   : 10256 bytes


** Section #10 '.debug_macinfo' (SHT_PROGBITS)
    Size   : 108668 bytes


** Section #11 '.debug_pubnames' (SHT_PROGBITS)
    Size   : 7088 bytes


** Section #12 '.symtab' (SHT_SYMTAB)
    Size   : 5712 bytes (alignment 4)
    String table #13 '.strtab'
    Last local symbol no. 200

    Symbol table .symtab (356 symbols, 200 local)

      #  Symbol Name                Value      Bind  Sec  Type  Vis  Size
    ========================================================================

      1  $m                         0x00000049   Lc  Abs   --   De 
      2  $a                         0x00000000   Lc    1   --   De 
      3  $d                         0x000003c8   Lc    1   --   De 
      4  $a                         0x00000520   Lc    1   --   De 
      5  $a                         0x00000550   Lc    1   --   De 
      6  $d                         0x00000634   Lc    1   --   De 
      7  $a                         0x00000760   Lc    1   --   De 
      8  $d                         0x000007c0   Lc    1   --   De 
      9  $a                         0x00000814   Lc    1   --   De 
     10  $d                         0x00000a08   Lc    1   --   De 
     11  $a                         0x00000b20   Lc    1   --   De 
     12  $d                         0x00000d50   Lc    1   --   De 
     13  $a                         0x00000e50   Lc    1   --   De 
     14  $d                         0x000011f8   Lc    1   --   De 
     15  $a                         0x00001294   Lc    1   --   De 
     16  $d                         0x000015e4   Lc    1   --   De 
     17  $a                         0x000016c8   Lc    1   --   De 
     18  $d                         0x00001a74   Lc    1   --   De 
     19  $a                         0x00001b98   Lc    1   --   De 
     20  $d                         0x00001cd4   Lc    1   --   De 
     21  $a                         0x00001cfc   Lc    1   --   De 
     22  $d                         0x0000211c   Lc    1   --   De 
     23  $a                         0x00002128   Lc    1   --   De 
     24  $d                         0x00002360   Lc    1   --   De 
     25  $a                         0x00002368   Lc    1   --   De 
     26  $d                         0x00002724   Lc    1   --   De 
     27  $a                         0x00002728   Lc    1   --   De 
     28  $d                         0x000029d0   Lc    1   --   De 
     29  $a                         0x000029d8   Lc    1   --   De 
     30  $p                         0x000029e0   Lc    1   --   De 
     31  $p                         0x000029ec   Lc    1   --   De 
     32  $p                         0x000029f8   Lc    1   --   De 
     33  $p                         0x00002a04   Lc    1   --   De 
     34  $p                         0x00002a10   Lc    1   --   De 
     35  $p                         0x00002a1c   Lc    1   --   De 
     36  $p                         0x00002a28   Lc    1   --   De 
     37  $p                         0x00002a34   Lc    1   --   De 
     38  $p                         0x00002a40   Lc    1   --   De 
     39  $p                         0x00002a4c   Lc    1   --   De 
     40  $p                         0x00002a58   Lc    1   --   De 
     41  $p                         0x00002a64   Lc    1   --   De 
     42  $p                         0x00002a70   Lc    1   --   De 
     43  $p                         0x00002a84   Lc    1   --   De 
     44  $p                         0x00002a90   Lc    1   --   De 
     45  $p                         0x00002a9c   Lc    1   --   De 
     46  $p                         0x00002aac   Lc    1   --   De 
     47  $d                         0x00002abc   Lc    1   --   De 
     48  $a                         0x00002ac0   Lc    1   --   De 
     49  $a                         0x00002b50   Lc    1   --   De 
     50  $p                         0x00002b58   Lc    1   --   De 
     51  $d                         0x00002be8   Lc    1   --   De 
     52  $a                         0x00002bec   Lc    1   --   De 
     53  $a                         0x00002c44   Lc    1   --   De 
     54  $a                         0x00002da8   Lc    1   --   De 
     55  $a                         0x00002dac   Lc    1   --   De 
     56  $a                         0x00002db8   Lc    1   --   De 
     57  $a                         0x00002dd0   Lc    1   --   De 
     58  $d                         0x00002de0   Lc    1   --   De 
     59  $f                         0x00002de0   Lc    1   --   De 
     60  $a                         0x00002de8   Lc    1   --   De 
     61  $p                         0x00002e28   Lc    1   --   De 
     62  $a                         0x00002e34   Lc    1   --   De 
     63  $a                         0x00002e38   Lc    1   --   De 
     64  $d                         0x00002f08   Lc    1   --   De 
     65  $a                         0x00002f84   Lc    1   --   De 
     66  $a                         0x00002f9c   Lc    1   --   De 
     67  $a                         0x00002fb8   Lc    1   --   De 
     68  $d.realdata                0x00003068   Lc    1   --   De 
     69  $d.realdata                0x000031ac   Lc    2   --   De 
     70  $d.realdata                0x00003218   Lc    2   --   De 
     71  $d.realdata                0x00003228   Lc    3   --   De 
     72  $d.realdata                0xffff0000   Lc    4   --   De 
     73  $f                         0xffff0018   Lc    4   --   De 
     74  jpeg_tset.c                0x00000000   Lc  Abs  File  De 
     75  .text                      0x00000000   Lc    1  Sect  De   0x550
     76  magic.c                    0x00000000   Lc  Abs  File  De 
     77  MAGIC                      0xffff0000   Lc    4  Sect  De   0x24
     78  MAGIC$6                    0xffff0000   Lc    4  Data  De 
     79  test_app.c                 0x00000000   Lc  Abs  File  De 
     80  .text                      0x00000550   Lc    1  Sect  De   0x2c4
     81  test_csi.c                 0x00000000   Lc  Abs  File  De 
     82  .data                      0x000031ac   Lc    2  Sect  De   0x6c
     83  .text                      0x00000814   Lc    1  Sect  De   0x14e8
     84  |L1.728|                   0x00000aec   Lc    1  Data  De 
     85  |L1.740|                   0x00000af8   Lc    1  Data  De 
     86  |L1.2644|                  0x00001268   Lc    1  Data  De 
     87  .data$0                    0x000031ac   Lc    2  Data  De 
     88  capture_on_times           0x00003200   Lc    2  Data  De   0x4
     89  ansic\elibs_stdio.c        0x00000000   Lc  Abs  File  De 
     90  .text                      0x00001cfc   Lc    1  Sect  De   0xcdc
     91  .bss                       0x00003228   Lc    3  Sect  De   0x400
     92  .data                      0x00003218   Lc    2  Sect  De   0x10
     93  .data$0                    0x00003218   Lc    2  Data  De 
     94  dir_level@eLIBs_GetDirSize_0
                                    0x00003218   Lc    2  Data  De   0x4
     95  ret_size@eLIBs_GetDirSize_1
                                    0x00003220   Lc    2  Data  De   0x8
     96  .bss$5                     0x00003228   Lc    3  Data  De 
     97  buffer@eLIBs_vprintf_0     0x00003228   Lc    3  Data  De   0x400
     98  ansic\elibs_string.c       0x00000000   Lc  Abs  File  De 
     99  .text                      0x000029d8   Lc    1  Sect  De   0xe8
    100  misc\pub0\cacheop\cleanflushcachebyregion.c
                                    0x00000000   Lc  Abs  File  De 
    101  .text                      0x00002ac0   Lc    1  Sect  De   0x90
    102  ansic\sprintf.c            0x00000000   Lc  Abs  File  De 
    103  .text                      0x00002b50   Lc    1  Sect  De   0x9c
    104  misc/pub0/cacheop/_cleanflushcachebyregion.s
                                    0x00000000   Lc  Abs  File  De 
    105  cleanflushcachebyregion    0x00002fb8   Lc    1  Sect  De   0xb0
    106  EPDK_CPU                   0x00000000   Lc  Abs   --   De 
    107  EPDK_CPU_AC320             0x00000000   Lc  Abs   --   De 
    108  EPDK_CPU_ARM926EJ_S        0x00000000   Lc  Abs   --   De 
    109  EPDK_LIVE_CLICK            0x00000000   Lc  Abs   --   De 
    110  EPDK_OS_EPOS               0x00000000   Lc  Abs   --   De 
    111  EPDK_ARCH_SUNI             0x00000001   Lc  Abs   --   De 
    112  EPDK_LIVE_TOUCH            0x00000001   Lc  Abs   --   De 
    113  EPDK_ARCH_SUNII            0x00000002   Lc  Abs   --   De 
    114  EPDK_LIVE_BOX              0x00000002   Lc  Abs   --   De 
    115  NWAY                       0x00000002   Lc  Abs   --   De 
    116  EPDK_ARCH_SUNIII           0x00000003   Lc  Abs   --   De 
    117  EPDK_COMPASS               0x00000003   Lc  Abs   --   De 
    118  EPDK_ARCH                  0x00000004   Lc  Abs   --   De 
    119  EPDK_ARCH_SUNIV            0x00000004   Lc  Abs   --   De 
    120  I7SET                      0x00000004   Lc  Abs   --   De 
    121  CLINE                      0x00000005   Lc  Abs   --   De 
    122  NSET                       0x00000007   Lc  Abs   --   De 
    123  SWAY                       0x0000000c   Lc  Abs   --   De 
    124  CSIZE                      0x0000000e   Lc  Abs   --   De 
    125  I7WAY                      0x0000001e   Lc  Abs   --   De 
    126  EPDK_CPU_ARM920T           0x00000064   Lc  Abs   --   De 
    127  EPDK_OS_WIN2K              0x00000064   Lc  Abs   --   De 
    128  EPDK_CPU_ARM922T           0x00000065   Lc  Abs   --   De 
    129  EPDK_OS_WINXP              0x00000065   Lc  Abs   --   De 
    130  EPDK_CPU_ARM940T           0x00000066   Lc  Abs   --   De 
    131  EPDK_OS_VISTA              0x00000066   Lc  Abs   --   De 
    132  EPDK_CPU_ARM946E_S         0x00000067   Lc  Abs   --   De 
    133  EPDK_OS_LINUX              0x00000067   Lc  Abs   --   De 
    134  EPDK_CPU_ARM1022E          0x00000068   Lc  Abs   --   De 
    135  EPDK_OS_MOSH               0x00000068   Lc  Abs   --   De 
    136  EPDK_CPU_ARM1026EJ_S       0x00000069   Lc  Abs   --   De 
    137  EPDK_CPU_SA_110            0x0000006a   Lc  Abs   --   De 
    138  EPDK_CPU_XSCALE            0x0000006b   Lc  Abs   --   De 
    139  EPDK_CPU_ARM720T           0x0000006c   Lc  Abs   --   De 
    140  EPDK_CHIP_SUNI             0x01000000   Lc  Abs   --   De 
    141  EPDK_PID_INT001            0x01000000   Lc  Abs   --   De 
    142  EPDK_SID_INT001_DEV        0x01000100   Lc  Abs   --   De 
    143  EPDK_PID_PVP001            0x01010000   Lc  Abs   --   De 
    144  EPDK_SID_PVP001_001        0x01010100   Lc  Abs   --   De 
    145  EPDK_SID_PVP001_002        0x01010200   Lc  Abs   --   De 
    146  EPDK_SID_PVP001_003        0x01010300   Lc  Abs   --   De 
    147  EPDK_PID_TVD001            0x01020000   Lc  Abs   --   De 
    148  EPDK_SID_TVD001_001        0x01020100   Lc  Abs   --   De 
    149  EPDK_PID_PVP002            0x01030000   Lc  Abs   --   De 
    150  EPDK_SID_PVP002_001        0x01030100   Lc  Abs   --   De 
    151  EPDK_CHIP_SUNII            0x02000000   Lc  Abs   --   De 
    152  EPDK_PID_INT101            0x02000000   Lc  Abs   --   De 
    153  EPDK_SID_INT101_DEV        0x02000100   Lc  Abs   --   De 
    154  EPDK_PID_PVP101            0x02010000   Lc  Abs   --   De 
    155  EPDK_SID_PVP101_001        0x02010100   Lc  Abs   --   De 
    156  EPDK_SID_PVP101_002        0x02010200   Lc  Abs   --   De 
    157  EPDK_PID_PVP102            0x02020000   Lc  Abs   --   De 
    158  EPDK_PID_PVP103            0x02030000   Lc  Abs   --   De 
    159  EPDK_SID_PVP103_001        0x02030100   Lc  Abs   --   De 
    160  EPDK_PID_TVD101            0x02040000   Lc  Abs   --   De 
    161  EPDK_CHIP_SUNIII           0x03000000   Lc  Abs   --   De 
    162  EPDK_PID_INT201            0x03000000   Lc  Abs   --   De 
    163  EPDK_SID_INT201_DEV        0x03000100   Lc  Abs   --   De 
    164  EPDK_CHIP                  0x04000000   Lc  Abs   --   De 
    165  EPDK_CHIP_SUNIV            0x04000000   Lc  Abs   --   De 
    166  DRAM_SIZE                  0x08000000   Lc  Abs   --   De 
    167  DRAM_vBASE                 0xc2000000   Lc  Abs   --   De 
    168  REGS_vBASE                 0xf0000000   Lc  Abs   --   De 
    169  SRAM_vBASE                 0xf0000000   Lc  Abs   --   De 
    170  dc.s                       0x00000000   Lc  Abs  File  De 
    171  ../../memcpset.s           0x00000000   Lc  Abs  File  De 
    172  .text                      0x00002bec   Lc    1  Sect  De   0x58
    173  _loop                      0x00002c04   Lc    1  Code  De 
    174  ../../division.s           0x00000000   Lc  Abs  File  De 
    175  .text                      0x00002c44   Lc    1  Sect  De   0x164
    176  .text_udiv                 0x00002f9c   Lc    1  Sect  De   0x1c
    177  __arm_div8                 0x00002c70   Lc    1  Code  De 
    178  __arm_div4                 0x00002ca0   Lc    1  Code  De 
    179  __arm_div1                 0x00002cc4   Lc    1  Code  De 
    180  __arm_div_negative         0x00002cd4   Lc    1  Code  De 
    181  __arm_div_large            0x00002cf4   Lc    1  Code  De 
    182  ../../angel/rt.s           0x00000000   Lc  Abs  File  De 
    183  .text                      0x00002da8   Lc    1  Sect  De   0x4
    184  ../../angel/rt.s           0x00000000   Lc  Abs  File  De 
    185  .text                      0x00002dac   Lc    1  Sect  De   0xc
    186  ../../angel/rt.s           0x00000000   Lc  Abs  File  De 
    187  .text                      0x00002db8   Lc    1  Sect  De   0x18
    188  ../../angel/sys.s          0x00000000   Lc  Abs  File  De 
    189  .text                      0x00002dd0   Lc    1  Sect  De   0x18
    190  ../../signal.c             0x00000000   Lc  Abs  File  De 
    191  .text                      0x00002de8   Lc    1  Sect  De   0x4c
    192  ../../angel/sys.s          0x00000000   Lc  Abs  File  De 
    193  .text                      0x00002e34   Lc    1  Sect  De   0x4
    194  ../../signal.c             0x00000000   Lc  Abs  File  De 
    195  .text                      0x00002e38   Lc    1  Sect  De   0x14c
    196  .constdata                 0x00003068   Lc    1  Sect  De   0x142
    197  .constdata$1               0x00003068   Lc    1  Data  De 
    198  messages@__default_signal_handler_0
                                    0x00003068   Lc    1  Data  De   0x142
    199  ../../angel/sysapp.c       0x00000000   Lc  Abs  File  De 
    200  .text                      0x00002f84   Lc    1  Sect  De   0x18
    201  BuildAttributes$$ARM_ISAv5$M$E$P$PE$A:L22$X:L11$S22$IEEE1$IW$~IW$USESV6$~STKCKD$USESV7$~SHL$OSPACE$EBA8$REQ8$PRES8$EABIv2
                                    0x00000000   Gb  Abs   --   De 
    202  jpeg_enc_test              0x00000000   Gb    1  Code  Hi   0x550
    203  test_display_driver        0x00000550   Gb    1  Code  Hi   0x7c
    204  test_jpeg_driver           0x000005cc   Gb    1  Code  Hi   0x10
    205  test_print_selection       0x000005dc   Gb    1  Code  Hi   0x2c
    206  test_app                   0x00000608   Gb    1  Code  Hi   0x1b8
    207  asc2bin                    0x00000814   Gb    1  Code  Hi   0x5c
    208  generate_frame_id          0x00000870   Gb    1  Code  Hi   0x24
    209  app_main                   0x00000894   Gb    1  Code  Hi   0x1414
    210  record_capture_on_times    0x00001ca8   Gb    1  Code  Hi   0x18
    211  test_csi                   0x00001cc0   Gb    1  Code  Hi   0x14
    212  eLIBs_remove               0x00001cfc   Gb    1  Code  Hi   0xc
    213  eLIBs_rename               0x00001d08   Gb    1  Code  Hi   0xc
    214  eLIBs_fopen                0x00001d14   Gb    1  Code  Hi   0xc
    215  eLIBs_fclose               0x00001d20   Gb    1  Code  Hi   0xc
    216  eLIBs_fsync                0x00001d2c   Gb    1  Code  Hi   0xc
    217  eLIBs_fread                0x00001d38   Gb    1  Code  Hi   0xc
    218  eLIBs_fwrite               0x00001d44   Gb    1  Code  Hi   0xc
    219  eLIBs_fseek                0x00001d50   Gb    1  Code  Hi   0xc
    220  eLIBs_ftell                0x00001d5c   Gb    1  Code  Hi   0xc
    221  eLIBs_fllseek              0x00001d68   Gb    1  Code  Hi   0x18
    222  eLIBs_flltell              0x00001d80   Gb    1  Code  Hi   0x28
    223  eLIBs_fioctrl              0x00001da8   Gb    1  Code  Hi   0xc
    224  eLIBs_ferror               0x00001db4   Gb    1  Code  Hi   0xc
    225  eLIBs_ferrclr              0x00001dc0   Gb    1  Code  Hi   0xc
    226  eLIBs_opendir              0x00001dcc   Gb    1  Code  Hi   0xc
    227  eLIBs_closedir             0x00001dd8   Gb    1  Code  Hi   0xc
    228  eLIBs_readdir              0x00001de4   Gb    1  Code  Hi   0xc
    229  eLIBs_rewinddir            0x00001df0   Gb    1  Code  Hi   0xc
    230  eLIBs_mkdir                0x00001dfc   Gb    1  Code  Hi   0xc
    231  eLIBs_rmdir                0x00001e08   Gb    1  Code  Hi   0xc
    232  eLIBs_DirEnt2Attr          0x00001e14   Gb    1  Code  Hi   0xc
    233  eLIBs_DirEnt2Name          0x00001e20   Gb    1  Code  Hi   0x28
    234  eLIBs_DirEnt2Size          0x00001e48   Gb    1  Code  Hi   0x8
    235  eLIBs_DirEnt2Time          0x00001e50   Gb    1  Code  Hi   0x8
    236  eLIBs_GetNumFiles          0x00001e58   Gb    1  Code  Hi   0x58
    237  eLIBs_GetNumSubItems       0x00001eb0   Gb    1  Code  Hi   0x54
    238  eLIBs_GetFileAttributes    0x00001f04   Gb    1  Code  Hi   0x58
    239  eLIBs_SetFileAttributes    0x00001f5c   Gb    1  Code  Hi   0x8
    240  eLIBs_GetDirSize           0x00001f64   Gb    1  Code  Hi   0x11c
    241  eLIBs_GetFileSize          0x00002080   Gb    1  Code  Hi   0x50
    242  eLIBs_format               0x000020d0   Gb    1  Code  Hi   0xc
    243  eLIBs_GetVolName           0x000020dc   Gb    1  Code  Hi   0x4c
    244  eLIBs_GetVolNameCharset    0x00002128   Gb    1  Code  Hi   0x58
    245  eLIBs_GetVolTSpace         0x00002180   Gb    1  Code  Hi   0x38
    246  eLIBs_GetVolFSpace         0x000021b8   Gb    1  Code  Hi   0x38
    247  eLIBs_GetVolClustSize      0x000021f0   Gb    1  Code  Hi   0x28
    248  eLIBs_GetFSName            0x00002218   Gb    1  Code  Hi   0x44
    249  eLIBs_GetFSAttribute       0x0000225c   Gb    1  Code  Hi   0x40
    250  eLIBs_GetPTName            0x0000229c   Gb    1  Code  Hi   0x3c
    251  eLIBs_IsPartFormated       0x000022d8   Gb    1  Code  Hi   0x90
    252  eLIBs_disklock             0x00002368   Gb    1  Code  Hi   0xc
    253  eLIBs_diskunlock           0x00002374   Gb    1  Code  Hi   0xc
    254  eLIBs_GetDiskArray         0x00002380   Gb    1  Code  Hi   0x64
    255  eLIBs_feof                 0x000023e4   Gb    1  Code  Hi   0x30
    256  eLIBs_fgetc                0x00002414   Gb    1  Code  Hi   0x28
    257  eLIBs_fgets                0x0000243c   Gb    1  Code  Hi   0x74
    258  eLIBs_fputc                0x000024b0   Gb    1  Code  Hi   0x30
    259  eLIBs_fputs                0x000024e0   Gb    1  Code  Hi   0x38
    260  eLIBs_GetFileATime         0x00002518   Gb    1  Code  Hi   0x84
    261  eLIBs_GetFileMTime         0x0000259c   Gb    1  Code  Hi   0x84
    262  eLIBs_GetFileCTime         0x00002620   Gb    1  Code  Hi   0x84
    263  eLIBs_GetDirATime          0x000026a4   Gb    1  Code  Hi   0x84
    264  eLIBs_GetDirMTime          0x00002728   Gb    1  Code  Hi   0x80
    265  eLIBs_GetDirCTime          0x000027a8   Gb    1  Code  Hi   0x80
    266  eLIBs_GetFSCharset         0x00002828   Gb    1  Code  Hi   0x1c
    267  eLIBs_file2fd              0x00002844   Gb    1  Code  Hi   0xc
    268  eLIBs_fd2file              0x00002850   Gb    1  Code  Hi   0xc
    269  eLIBs_open                 0x0000285c   Gb    1  Code  Hi   0xc
    270  eLIBs_fstat                0x00002868   Gb    1  Code  Hi   0xc
    271  eLIBs_statfs               0x00002874   Gb    1  Code  Hi   0x10
    272  eLIBs_vprintf              0x00002884   Gb    1  Code  Hi   0x2c
    273  eLIBs_printf               0x000028b0   Gb    1  Code  Hi   0x1c
    274  eLIBs_GetDevName           0x000028cc   Gb    1  Code  Hi   0x54
    275  eLIBs_GetDevParts          0x00002920   Gb    1  Code  Hi   0x98
    276  eLIBs_GetTime              0x000029b8   Gb    1  Code  Hi   0xc
    277  eLIBs_GetDate              0x000029c4   Gb    1  Code  Hi   0xc
    278  eLIBs_strlen               0x000029d8   Gb    1  Code  Hi   0xc
    279  eLIBs_strcpy               0x000029e4   Gb    1  Code  Hi   0xc
    280  eLIBs_strncpy              0x000029f0   Gb    1  Code  Hi   0xc
    281  eLIBs_strcat               0x000029fc   Gb    1  Code  Hi   0xc
    282  eLIBs_strncat              0x00002a08   Gb    1  Code  Hi   0xc
    283  eLIBs_strcmp               0x00002a14   Gb    1  Code  Hi   0xc
    284  eLIBs_stricmp              0x00002a20   Gb    1  Code  Hi   0xc
    285  eLIBs_strncmp              0x00002a2c   Gb    1  Code  Hi   0xc
    286  eLIBs_strnicmp             0x00002a38   Gb    1  Code  Hi   0xc
    287  eLIBs_strchr               0x00002a44   Gb    1  Code  Hi   0xc
    288  eLIBs_strnchr              0x00002a50   Gb    1  Code  Hi   0xc
    289  eLIBs_strchrlast           0x00002a5c   Gb    1  Code  Hi   0xc
    290  eLIBs_strstr               0x00002a68   Gb    1  Code  Hi   0xc
    291  eLIBs_memclr               0x00002a74   Gb    1  Code  Hi   0x14
    292  eLIBs_memset               0x00002a88   Gb    1  Code  Hi   0xc
    293  eLIBs_memcpy               0x00002a94   Gb    1  Code  Hi   0xc
    294  eLIBs_memcmp               0x00002aa0   Gb    1  Code  Hi   0x1c
    295  eLIBs_CleanDCacheRegion    0x00002ac0   Gb    1  Code  Hi   0x8
    296  eLIBs_CleanFlushDCacheRegion
                                    0x00002ac8   Gb    1  Code  Hi   0x8
    297  eLIBs_CleanFlushCacheRegion
                                    0x00002ad0   Gb    1  Code  Hi   0x8
    298  eLIBs_FlushICacheRegion    0x00002ad8   Gb    1  Code  Hi   0x8
    299  eLIBs_FlushDCacheRegion    0x00002ae0   Gb    1  Code  Hi   0x38
    300  eLIBs_FlushCacheRegion     0x00002b18   Gb    1  Code  Hi   0x38
    301  eLIBs_vsnprintf            0x00002b50   Gb    1  Code  Hi   0xc
    302  eLIBs_vscnprintf           0x00002b5c   Gb    1  Code  Hi   0x18
    303  eLIBs_snprintf             0x00002b74   Gb    1  Code  Hi   0x1c
    304  eLIBs_scnprintf            0x00002b90   Gb    1  Code  Hi   0x28
    305  eLIBs_vsprintf             0x00002bb8   Gb    1  Code  Hi   0x10
    306  eLIBs_sprintf              0x00002bc8   Gb    1  Code  Hi   0x20
    307  __aeabi_memclr4            0x00002bec   Gb    1  Code  Hi 
    308  __aeabi_memclr8            0x00002bec   Gb    1  Code  Hi 
    309  __rt_memclr_w              0x00002bec   Gb    1  Code  Hi   0x58
    310  _memset_w                  0x00002bf0   Gb    1  Code  Hi 
    311  __aeabi_idiv               0x00002c44   Gb    1  Code  Hi 
    312  __aeabi_idivmod            0x00002c44   Gb    1  Code  Hi   0x164
    313  __aeabi_idiv0              0x00002da8   Gb    1  Code  Hi   0x4
    314  __rt_div0                  0x00002dac   Gb    1  Code  Hi   0xc
    315  __rt_raise                 0x00002db8   Gb    1  Code  Hi   0x18
    316  _sys_exit                  0x00002dd0   Gb    1  Code  Hi   0x14
    317  __raise                    0x00002de8   Gb    1  Code  Hi   0x4c
    318  __I_use_semihosting_swi    0x00002e34   Gb    1  Code  Hi   0x4
    319  __semihosting_swi_guard    0x00002e34   Gb    1  Code  Hi 
    320  __default_signal_handler   0x00002e38   Gb    1  Code  De   0xd0
    321  _ttywrch                   0x00002f84   Gb    1  Code  De   0x18
    322  __aeabi_uidiv              0x00002f9c   Gb    1  Code  Hi 
    323  __aeabi_uidivmod           0x00002f9c   Gb    1  Code  Hi   0x1c
    324  _eLIBs_FlushICacheRegion   0x00002fb8   Gb    1  Code  Hi 
    325  _eLIBs_FlushDCacheRegion   0x00002fd4   Gb    1  Code  Hi 
    326  _eLIBs_FlushCacheRegion    0x00002ff0   Gb    1  Code  Hi 
    327  _eLIBs_CleanDCacheRegion   0x00003010   Gb    1  Code  Hi 
    328  _eLIBs_CleanFlushDCacheRegion
                                    0x0000302c   Gb    1  Code  Hi 
    329  _eLIBs_CleanFlushCacheRegion
                                    0x00003048   Gb    1  Code  Hi 
    330  lcd_width                  0x000031ac   Gb    2  Data  Hi   0x4
    331  lcd_height                 0x000031b0   Gb    2  Data  Hi   0x4
    332  disp_fb_x_size             0x000031b4   Gb    2  Data  Hi   0x4
    333  disp_fb_y_size             0x000031b8   Gb    2  Data  Hi   0x4
    334  disp_src_x_size            0x000031bc   Gb    2  Data  Hi   0x4
    335  disp_src_y_size            0x000031c0   Gb    2  Data  Hi   0x4
    336  TIME_OUT_EN                0x000031c4   Gb    2  Data  Hi   0x4
    337  scaler_base                0x000031c8   Gb    2  Data  Hi   0x4
    338  fp_disp                    0x000031cc   Gb    2  Data  Hi   0x4
    339  fp_csi                     0x000031d0   Gb    2  Data  Hi   0x4
    340  fp_raw_bin                 0x000031d4   Gb    2  Data  Hi   0x4
    341  frame_count                0x000031d8   Gb    2  Data  Hi   0x4
    342  CNT_MAX                    0x000031dc   Gb    2  Data  Hi   0x4
    343  file_writing               0x000031e0   Gb    2  Data  Hi   0x4
    344  TIME_OUT_MAX               0x000031e4   Gb    2  Data  Hi   0x1
    345  file_path                  0x000031e5   Gb    2  Data  Hi   0x4
    346  file_number                0x000031e9   Gb    2  Data  Hi   0x3
    347  reg_data                   0x000031ec   Gb    2  Data  Hi   0x10
    348  frame_id                   0x000031fc   Gb    2  Data  Hi   0x4
    349  disp_mode                  0x00003204   Gb    2  Data  Hi   0x1
    350  disp_px_seq                0x00003205   Gb    2  Data  Hi   0x1
    351  disp_px_fmt                0x00003206   Gb    2  Data  Hi   0x1
    352  wr_size                    0x00003208   Gb    2  Data  Hi   0x4
    353  file_name                  0x0000320c   Gb    2  Data  Hi   0x1
    354  fb_ptr                     0x00003210   Gb    2  Data  Hi   0x4
    355  p_display_buf              0x00003214   Gb    2  Data  Hi   0x4
    356  exfinfo                    0xffff0000   Gb    4  Data  Hi   0x24


** Section #13 '.strtab' (SHT_STRTAB)
    Size   : 4116 bytes


** Section #14 '.note' (SHT_NOTE)
    Size   : 32 bytes (alignment 4)


** Section #15 '.comment' (SHT_PROGBITS)
    Size   : 5920 bytes


** Section #16 '.shstrtab' (SHT_STRTAB)
    Size   : 152 bytes



========================================================================

** Object/Image Component Sizes

      Code (inc. data)   RO Data    RW Data    ZI Data      Debug   Object Name

     12392       2152        360        124       1024     743364   __image.axf
     12392       2152        360        124          0          0   ROM Totals for __image.axf
